(dp1
S'e7ff4b37-f04d-4a4f-bb1e-2044be242e33'
p2
(dp3
S'20140321_14'
p4
S'9482e992-9491-468f-89b0-e9e293406776'
p5
sS'20140321_15'
p6
g5
sS'20140321_16'
p7
g5
sS'20140321_17'
p8
S'9482e992-9491-468f-89b0-e9e293406776'
p9
sS'20140321_10'
p10
S'9482e992-9491-468f-89b0-e9e293406776'
p11
sS'20140321_11'
p12
g11
sS'20140321_12'
p13
g11
sS'20140321_13'
p14
g5
sS'20140509_10'
p15
S'9482e992-9491-468f-89b0-e9e293406776'
p16
sS'20140509_11'
p17
g16
sS'20140509_12'
p18
S'9482e992-9491-468f-89b0-e9e293406776'
p19
sS'20140509_13'
p20
S'9482e992-9491-468f-89b0-e9e293406776'
p21
sS'20140312_07'
p22
S'db22b367-f7ba-4070-b582-dd8bbacce9fb'
p23
sS'20140312_09'
p24
S'db22b367-f7ba-4070-b582-dd8bbacce9fb'
p25
sS'20140312_08'
p26
g23
sS'20140312_12'
p27
S'db22b367-f7ba-4070-b582-dd8bbacce9fb'
p28
sS'20140310_09'
p29
S'0efd2316-feb9-461c-b102-045aef8e22fe'
p30
sS'20140310_08'
p31
S'0efd2316-feb9-461c-b102-045aef8e22fe'
p32
sS'20140505_10'
p33
S'0efd2316-feb9-461c-b102-045aef8e22fe'
p34
sS'20140505_11'
p35
g34
sS'20140505_12'
p36
S'0efd2316-feb9-461c-b102-045aef8e22fe'
p37
sS'20140505_13'
p38
S'0efd2316-feb9-461c-b102-045aef8e22fe'
p39
sS'20140509_09'
p40
S'9482e992-9491-468f-89b0-e9e293406776'
p41
sS'20140509_08'
p42
S'9482e992-9491-468f-89b0-e9e293406776'
p43
sS'20140509_07'
p44
g43
sS'20140509_06'
p45
S'9482e992-9491-468f-89b0-e9e293406776'
p46
sS'20140312_10'
p47
g25
sS'20140312_11'
p48
S'db22b367-f7ba-4070-b582-dd8bbacce9fb'
p49
sS'20140312_13'
p50
g28
sS'20140310_07'
p51
g32
sS'20140312_14'
p52
g28
sS'20140310_10'
p53
S'0efd2316-feb9-461c-b102-045aef8e22fe'
p54
sS'20140310_11'
p55
g54
sS'20140505_09'
p56
S'0efd2316-feb9-461c-b102-045aef8e22fe'
p57
sS'20140505_08'
p58
S'0efd2316-feb9-461c-b102-045aef8e22fe'
p59
sS'20140310_14'
p60
S'0efd2316-feb9-461c-b102-045aef8e22fe'
p61
sS'20140505_07'
p62
S'0efd2316-feb9-461c-b102-045aef8e22fe'
p63
sS'20140505_06'
p64
S'0efd2316-feb9-461c-b102-045aef8e22fe'
p65
sS'20140310_12'
p66
S'0efd2316-feb9-461c-b102-045aef8e22fe'
p67
sS'20140310_13'
p68
g61
ssS'b1c3affe-7707-4b18-83f3-8b25a1342665'
p69
(dp70
S'20140415_12'
p71
S'fee8a191-c3ca-42fd-b027-65cf73b2bf8c'
p72
sS'20140415_13'
p73
S'fee8a191-c3ca-42fd-b027-65cf73b2bf8c'
p74
sS'20140415_10'
p75
S'fee8a191-c3ca-42fd-b027-65cf73b2bf8c'
p76
sS'20140415_11'
p77
S'fee8a191-c3ca-42fd-b027-65cf73b2bf8c'
p78
sS'20140407_13'
p79
S'0efd2316-feb9-461c-b102-045aef8e22fe'
p80
sS'20140407_06'
p81
S'0efd2316-feb9-461c-b102-045aef8e22fe'
p82
sS'20140407_07'
p83
g82
sS'20140410_08'
p84
S'b851ca6c-8885-44a4-96b4-5c93d2975c9a'
p85
sS'20140411_06'
p86
S'0efd2316-feb9-461c-b102-045aef8e22fe'
p87
sS'20140411_09'
p88
S'0efd2316-feb9-461c-b102-045aef8e22fe'
p89
sS'20140410_07'
p90
g85
sS'20140407_08'
p91
S'0efd2316-feb9-461c-b102-045aef8e22fe'
p92
sS'20140407_14'
p93
S'0efd2316-feb9-461c-b102-045aef8e22fe'
p94
sS'20140411_07'
p95
S'0efd2316-feb9-461c-b102-045aef8e22fe'
p96
sS'20140410_09'
p97
S'b851ca6c-8885-44a4-96b4-5c93d2975c9a'
p98
sS'20140410_06'
p99
g85
sS'20140411_08'
p100
g96
sS'20140410_12'
p101
S'b851ca6c-8885-44a4-96b4-5c93d2975c9a'
p102
sS'20140415_09'
p103
S'fee8a191-c3ca-42fd-b027-65cf73b2bf8c'
p104
sS'20140415_08'
p105
g104
sS'20140415_07'
p106
S'fee8a191-c3ca-42fd-b027-65cf73b2bf8c'
p107
sS'20140415_06'
p108
g107
sS'20140407_11'
p109
S'0efd2316-feb9-461c-b102-045aef8e22fe'
p110
sS'20140407_10'
p111
S'0efd2316-feb9-461c-b102-045aef8e22fe'
p112
sS'20140411_14'
p113
S'0efd2316-feb9-461c-b102-045aef8e22fe'
p114
sS'20140407_12'
p115
g80
sS'20140411_12'
p116
S'0efd2316-feb9-461c-b102-045aef8e22fe'
p117
sS'20140411_13'
p118
S'0efd2316-feb9-461c-b102-045aef8e22fe'
p119
sS'20140411_10'
p120
g89
sS'20140411_11'
p121
S'0efd2316-feb9-461c-b102-045aef8e22fe'
p122
sS'20140410_11'
p123
S'b851ca6c-8885-44a4-96b4-5c93d2975c9a'
p124
sS'20140410_10'
p125
g124
sS'20140410_13'
p126
S'b851ca6c-8885-44a4-96b4-5c93d2975c9a'
p127
sS'20140407_09'
p128
g92
sS'20140410_14'
p129
g127
ssS'9e2cad9c-24f8-4b40-a441-7440130ad251'
p130
(dp131
S'20140307_14'
p132
S'3da914c6-ab24-435c-aa9f-8facdfc1b5f7'
p133
sS'20140326_12'
p134
S'324f3626-d4c7-4622-bf82-3314cb546cfc'
p135
sS'20140307_10'
p136
S'3da914c6-ab24-435c-aa9f-8facdfc1b5f7'
p137
sS'20140307_11'
p138
g133
sS'20140307_12'
p139
g133
sS'20140307_13'
p140
g133
sS'20140403_10'
p141
S'3da914c6-ab24-435c-aa9f-8facdfc1b5f7'
p142
sS'20140313_07'
p143
S'fee8a191-c3ca-42fd-b027-65cf73b2bf8c'
p144
sS'20140430_12'
p145
S'b851ca6c-8885-44a4-96b4-5c93d2975c9a'
p146
sS'20140313_09'
p147
S'fee8a191-c3ca-42fd-b027-65cf73b2bf8c'
p148
sS'20140313_08'
p149
g144
sS'20140403_06'
p150
S'3da914c6-ab24-435c-aa9f-8facdfc1b5f7'
p151
sS'20140403_07'
p152
g151
sS'20140326_08'
p153
S'324f3626-d4c7-4622-bf82-3314cb546cfc'
p154
sS'20140326_09'
p155
S'324f3626-d4c7-4622-bf82-3314cb546cfc'
p156
sS'20140326_07'
p157
S'324f3626-d4c7-4622-bf82-3314cb546cfc'
p158
sS'20140403_08'
p159
g151
sS'20140306_14'
p160
S'3da914c6-ab24-435c-aa9f-8facdfc1b5f7'
p161
sS'20140306_13'
p162
g161
sS'20140306_12'
p163
g161
sS'20140306_11'
p164
g161
sS'20140306_10'
p165
S'3da914c6-ab24-435c-aa9f-8facdfc1b5f7'
p166
sS'20140430_08'
p167
S'b851ca6c-8885-44a4-96b4-5c93d2975c9a'
p168
sS'20140430_09'
p169
S'b851ca6c-8885-44a4-96b4-5c93d2975c9a'
p170
sS'20140514_07'
p171
S'3da914c6-ab24-435c-aa9f-8facdfc1b5f7'
p172
sS'20140514_06'
p173
g172
sS'20140514_09'
p174
S'3da914c6-ab24-435c-aa9f-8facdfc1b5f7'
p175
sS'20140514_08'
p176
g175
sS'20140430_06'
p177
S'b851ca6c-8885-44a4-96b4-5c93d2975c9a'
p178
sS'20140430_07'
p179
g178
sS'20140307_07'
p180
S'3da914c6-ab24-435c-aa9f-8facdfc1b5f7'
p181
sS'20140331_11'
p182
S'3da914c6-ab24-435c-aa9f-8facdfc1b5f7'
p183
sS'20140331_10'
p184
g183
sS'20140331_13'
p185
S'3da914c6-ab24-435c-aa9f-8facdfc1b5f7'
p186
sS'20140331_12'
p187
g186
sS'20140307_09'
p188
g181
sS'20140307_08'
p189
g181
sS'20140313_14'
p190
S'fee8a191-c3ca-42fd-b027-65cf73b2bf8c'
p191
sS'20140313_11'
p192
S'fee8a191-c3ca-42fd-b027-65cf73b2bf8c'
p193
sS'20140313_10'
p194
g148
sS'20140313_13'
p195
S'fee8a191-c3ca-42fd-b027-65cf73b2bf8c'
p196
sS'20140313_12'
p197
g196
sS'20140430_13'
p198
g146
sS'20140306_08'
p199
S'3da914c6-ab24-435c-aa9f-8facdfc1b5f7'
p200
sS'20140306_09'
p201
S'3da914c6-ab24-435c-aa9f-8facdfc1b5f7'
p202
sS'20140326_11'
p203
S'324f3626-d4c7-4622-bf82-3314cb546cfc'
p204
sS'20140326_10'
p205
g156
sS'20140326_13'
p206
S'324f3626-d4c7-4622-bf82-3314cb546cfc'
p207
sS'20140306_07'
p208
S'3da914c6-ab24-435c-aa9f-8facdfc1b5f7'
p209
sS'20140403_11'
p210
g142
sS'20140326_14'
p211
g207
sS'20140403_13'
p212
S'3da914c6-ab24-435c-aa9f-8facdfc1b5f7'
p213
sS'20140403_12'
p214
g213
sS'20140403_09'
p215
S'3da914c6-ab24-435c-aa9f-8facdfc1b5f7'
p216
sS'20140331_08'
p217
S'3da914c6-ab24-435c-aa9f-8facdfc1b5f7'
p218
sS'20140331_09'
p219
S'3da914c6-ab24-435c-aa9f-8facdfc1b5f7'
p220
sS'20140514_12'
p221
S'3da914c6-ab24-435c-aa9f-8facdfc1b5f7'
p222
sS'20140514_13'
p223
S'3da914c6-ab24-435c-aa9f-8facdfc1b5f7'
p224
sS'20140514_10'
p225
g175
sS'20140514_11'
p226
S'3da914c6-ab24-435c-aa9f-8facdfc1b5f7'
p227
sS'20140331_06'
p228
S'3da914c6-ab24-435c-aa9f-8facdfc1b5f7'
p229
sS'20140331_07'
p230
g229
sS'20140430_11'
p231
S'b851ca6c-8885-44a4-96b4-5c93d2975c9a'
p232
sS'20140430_10'
p233
g232
ssS'b099f2f0-5657-4a7b-b3c7-ad24e0321b71'
p234
(dp235
S'20140317_11'
p236
S'0efd2316-feb9-461c-b102-045aef8e22fe'
p237
sS'20140317_10'
p238
g237
sS'20140317_13'
p239
S'0efd2316-feb9-461c-b102-045aef8e22fe'
p240
sS'20140317_12'
p241
g240
sS'20140317_15'
p242
g240
sS'20140317_14'
p243
g240
sS'20140317_17'
p244
g240
sS'20140317_16'
p245
g240
ssS'6a3a7e1b-2896-4251-9974-e318c9a40158'
p246
(dp247
S'20140319_07'
p248
S'fee8a191-c3ca-42fd-b027-65cf73b2bf8c'
p249
sS'20140324_10'
p250
S'9482e992-9491-468f-89b0-e9e293406776'
p251
sS'20140324_07'
p252
S'9482e992-9491-468f-89b0-e9e293406776'
p253
sS'20140319_12'
p254
S'fee8a191-c3ca-42fd-b027-65cf73b2bf8c'
p255
sS'20140319_09'
p256
S'fee8a191-c3ca-42fd-b027-65cf73b2bf8c'
p257
sS'20140401_13'
p258
S'9482e992-9491-468f-89b0-e9e293406776'
p259
sS'20140401_12'
p260
S'9482e992-9491-468f-89b0-e9e293406776'
p261
sS'20140401_11'
p262
g261
sS'20140401_10'
p263
S'9482e992-9491-468f-89b0-e9e293406776'
p264
sS'20140324_08'
p265
S'9482e992-9491-468f-89b0-e9e293406776'
p266
sS'20140324_09'
p267
g251
sS'20140313_08'
p268
S'c0d88b90-e1b4-4bf4-b43d-bf4091346b2c'
p269
sS'20140313_09'
p270
S'c0d88b90-e1b4-4bf4-b43d-bf4091346b2c'
p271
sS'20140318_11'
p272
S'b851ca6c-8885-44a4-96b4-5c93d2975c9a'
p273
sS'20140317_11'
p274
S'db22b367-f7ba-4070-b582-dd8bbacce9fb'
p275
sS'20140317_10'
p276
g275
sS'20140317_13'
p277
S'db22b367-f7ba-4070-b582-dd8bbacce9fb'
p278
sS'20140317_12'
p279
S'db22b367-f7ba-4070-b582-dd8bbacce9fb'
p280
sS'20140317_15'
p281
g278
sS'20140318_12'
p282
S'b851ca6c-8885-44a4-96b4-5c93d2975c9a'
p283
sS'20140317_17'
p284
S'db22b367-f7ba-4070-b582-dd8bbacce9fb'
p285
sS'20140317_16'
p286
S'db22b367-f7ba-4070-b582-dd8bbacce9fb'
p287
sS'20140327_09'
p288
S'fee8a191-c3ca-42fd-b027-65cf73b2bf8c'
p289
sS'20140313_11'
p290
g271
sS'20140319_06'
p291
g249
sS'20140318_13'
p292
g283
sS'20140313_10'
p293
g271
sS'20140318_14'
p294
g283
sS'20140318_15'
p295
S'b851ca6c-8885-44a4-96b4-5c93d2975c9a'
p296
sS'20140318_16'
p297
g296
sS'20140318_17'
p298
S'b851ca6c-8885-44a4-96b4-5c93d2975c9a'
p299
sS'20140331_11'
p300
S'9482e992-9491-468f-89b0-e9e293406776'
p301
sS'20140331_10'
p302
S'9482e992-9491-468f-89b0-e9e293406776'
p303
sS'20140331_13'
p304
S'9482e992-9491-468f-89b0-e9e293406776'
p305
sS'20140331_12'
p306
g301
sS'20140327_13'
p307
S'fee8a191-c3ca-42fd-b027-65cf73b2bf8c'
p308
sS'20140324_13'
p309
S'9482e992-9491-468f-89b0-e9e293406776'
p310
sS'20140324_12'
p311
S'9482e992-9491-468f-89b0-e9e293406776'
p312
sS'20140324_11'
p313
g312
sS'20140401_07'
p314
S'9482e992-9491-468f-89b0-e9e293406776'
p315
sS'20140319_08'
p316
g249
sS'20140324_14'
p317
g310
sS'20140313_14'
p318
S'c0d88b90-e1b4-4bf4-b43d-bf4091346b2c'
p319
sS'20140401_08'
p320
S'9482e992-9491-468f-89b0-e9e293406776'
p321
sS'20140401_09'
p322
S'9482e992-9491-468f-89b0-e9e293406776'
p323
sS'20140313_13'
p324
S'c0d88b90-e1b4-4bf4-b43d-bf4091346b2c'
p325
sS'20140313_12'
p326
g325
sS'20140327_14'
p327
S'fee8a191-c3ca-42fd-b027-65cf73b2bf8c'
p328
sS'20140327_12'
p329
g308
sS'20140327_07'
p330
S'fee8a191-c3ca-42fd-b027-65cf73b2bf8c'
p331
sS'20140327_10'
p332
S'fee8a191-c3ca-42fd-b027-65cf73b2bf8c'
p333
sS'20140327_11'
p334
S'fee8a191-c3ca-42fd-b027-65cf73b2bf8c'
p335
sS'20140318_10'
p336
g273
sS'20140317_14'
p337
g278
sS'20140401_06'
p338
g315
sS'20140319_11'
p339
g255
sS'20140319_10'
p340
g257
sS'20140331_08'
p341
S'9482e992-9491-468f-89b0-e9e293406776'
p342
sS'20140331_09'
p343
g342
sS'20140327_08'
p344
S'fee8a191-c3ca-42fd-b027-65cf73b2bf8c'
p345
sS'20140319_05'
p346
g249
sS'20140331_06'
p347
S'9482e992-9491-468f-89b0-e9e293406776'
p348
sS'20140331_07'
p349
S'9482e992-9491-468f-89b0-e9e293406776'
p350
sS'20140313_07'
p351
S'c0d88b90-e1b4-4bf4-b43d-bf4091346b2c'
p352
ssS'dd9a1b73-8e37-4f98-86b3-55ab444597ed'
p353
(dp354
S'20140403_11'
p355
S'0efd2316-feb9-461c-b102-045aef8e22fe'
p356
sS'20140428_08'
p357
S'3da914c6-ab24-435c-aa9f-8facdfc1b5f7'
p358
sS'20140428_12'
p359
S'3da914c6-ab24-435c-aa9f-8facdfc1b5f7'
p360
sS'20140428_13'
p361
g360
sS'20140428_10'
p362
S'3da914c6-ab24-435c-aa9f-8facdfc1b5f7'
p363
sS'20140428_11'
p364
g363
sS'20140403_06'
p365
S'0efd2316-feb9-461c-b102-045aef8e22fe'
p366
sS'20140403_07'
p367
g366
sS'20140403_08'
p368
S'0efd2316-feb9-461c-b102-045aef8e22fe'
p369
sS'20140403_09'
p370
S'0efd2316-feb9-461c-b102-045aef8e22fe'
p371
sS'20140505_10'
p372
S'b851ca6c-8885-44a4-96b4-5c93d2975c9a'
p373
sS'20140505_12'
p374
S'b851ca6c-8885-44a4-96b4-5c93d2975c9a'
p375
sS'20140505_13'
p376
g375
sS'20140428_07'
p377
g358
sS'20140428_06'
p378
S'3da914c6-ab24-435c-aa9f-8facdfc1b5f7'
p379
sS'20140428_09'
p380
g363
sS'20140403_10'
p381
S'0efd2316-feb9-461c-b102-045aef8e22fe'
p382
sS'20140403_13'
p383
S'0efd2316-feb9-461c-b102-045aef8e22fe'
p384
sS'20140403_12'
p385
g384
sS'20140505_09'
p386
g373
sS'20140505_08'
p387
S'b851ca6c-8885-44a4-96b4-5c93d2975c9a'
p388
sS'20140505_07'
p389
g388
sS'20140505_06'
p390
g388
ssS'bcc37725-fb79-4e4d-af83-69246a065228'
p391
(dp392
S'20140422_10'
p393
S'db22b367-f7ba-4070-b582-dd8bbacce9fb'
p394
sS'20140422_11'
p395
S'db22b367-f7ba-4070-b582-dd8bbacce9fb'
p396
sS'20140422_12'
p397
S'db22b367-f7ba-4070-b582-dd8bbacce9fb'
p398
sS'20140422_13'
p399
S'db22b367-f7ba-4070-b582-dd8bbacce9fb'
p400
sS'20140311_13'
p401
S'db22b367-f7ba-4070-b582-dd8bbacce9fb'
p402
sS'20140313_13'
p403
S'b851ca6c-8885-44a4-96b4-5c93d2975c9a'
p404
sS'20140408_08'
p405
S'0efd2316-feb9-461c-b102-045aef8e22fe'
p406
sS'20140509_09'
p407
S'b851ca6c-8885-44a4-96b4-5c93d2975c9a'
p408
sS'20140509_08'
p409
S'b851ca6c-8885-44a4-96b4-5c93d2975c9a'
p410
sS'20140509_07'
p411
S'b851ca6c-8885-44a4-96b4-5c93d2975c9a'
p412
sS'20140509_06'
p413
g412
sS'20140520_11'
p414
S'47d0b7f6-6413-47ba-ab4f-76520ce148e2'
p415
sS'20140520_10'
p416
S'47d0b7f6-6413-47ba-ab4f-76520ce148e2'
p417
sS'20140410_11'
p418
S'2360f815-dcaa-4ded-9a86-a3b0c9f67450'
p419
sS'20140410_10'
p420
S'2360f815-dcaa-4ded-9a86-a3b0c9f67450'
p421
sS'20140410_13'
p422
S'2360f815-dcaa-4ded-9a86-a3b0c9f67450'
p423
sS'20140410_12'
p424
g423
sS'20140410_14'
p425
g423
sS'20140304_14'
p426
S'9482e992-9491-468f-89b0-e9e293406776'
p427
sS'20140304_11'
p428
S'9482e992-9491-468f-89b0-e9e293406776'
p429
sS'20140304_10'
p430
S'9482e992-9491-468f-89b0-e9e293406776'
p431
sS'20140304_13'
p432
S'9482e992-9491-468f-89b0-e9e293406776'
p433
sS'20140304_12'
p434
g433
sS'20140509_10'
p435
g408
sS'20140509_11'
p436
S'b851ca6c-8885-44a4-96b4-5c93d2975c9a'
p437
sS'20140509_12'
p438
g437
sS'20140509_13'
p439
g437
sS'20140410_08'
p440
S'2360f815-dcaa-4ded-9a86-a3b0c9f67450'
p441
sS'20140410_09'
p442
S'2360f815-dcaa-4ded-9a86-a3b0c9f67450'
p443
sS'20140410_07'
p444
g441
sS'20140324_13'
p445
S'0efd2316-feb9-461c-b102-045aef8e22fe'
p446
sS'20140324_12'
p447
S'0efd2316-feb9-461c-b102-045aef8e22fe'
p448
sS'20140324_11'
p449
g448
sS'20140324_10'
p450
S'0efd2316-feb9-461c-b102-045aef8e22fe'
p451
sS'20140324_14'
p452
g446
sS'20140318_07'
p453
S'db22b367-f7ba-4070-b582-dd8bbacce9fb'
p454
sS'20140305_09'
p455
S'9482e992-9491-468f-89b0-e9e293406776'
p456
sS'20140305_08'
p457
S'9482e992-9491-468f-89b0-e9e293406776'
p458
sS'20140324_07'
p459
S'0efd2316-feb9-461c-b102-045aef8e22fe'
p460
sS'20140324_08'
p461
g460
sS'20140324_09'
p462
g451
sS'20140305_07'
p463
g458
sS'20140311_12'
p464
g402
sS'20140311_11'
p465
S'db22b367-f7ba-4070-b582-dd8bbacce9fb'
p466
sS'20140311_10'
p467
S'db22b367-f7ba-4070-b582-dd8bbacce9fb'
p468
sS'20140304_08'
p469
S'9482e992-9491-468f-89b0-e9e293406776'
p470
sS'20140304_09'
p471
g470
sS'20140404_07'
p472
S'b851ca6c-8885-44a4-96b4-5c93d2975c9a'
p473
sS'20140404_06'
p474
g473
sS'20140404_09'
p475
S'b851ca6c-8885-44a4-96b4-5c93d2975c9a'
p476
sS'20140404_08'
p477
S'b851ca6c-8885-44a4-96b4-5c93d2975c9a'
p478
sS'20140304_07'
p479
S'9482e992-9491-468f-89b0-e9e293406776'
p480
sS'20140307_07'
p481
S'0efd2316-feb9-461c-b102-045aef8e22fe'
p482
sS'20140307_09'
p483
S'0efd2316-feb9-461c-b102-045aef8e22fe'
p484
sS'20140307_08'
p485
g482
sS'20140305_12'
p486
S'9482e992-9491-468f-89b0-e9e293406776'
p487
sS'20140408_06'
p488
S'0efd2316-feb9-461c-b102-045aef8e22fe'
p489
sS'20140305_10'
p490
g456
sS'20140305_11'
p491
S'9482e992-9491-468f-89b0-e9e293406776'
p492
sS'20140305_14'
p493
S'9482e992-9491-468f-89b0-e9e293406776'
p494
sS'20140313_14'
p495
g404
sS'20140313_11'
p496
S'b851ca6c-8885-44a4-96b4-5c93d2975c9a'
p497
sS'20140313_10'
p498
g497
sS'20140408_09'
p499
g406
sS'20140313_12'
p500
S'b851ca6c-8885-44a4-96b4-5c93d2975c9a'
p501
sS'20140326_11'
p502
S'9482e992-9491-468f-89b0-e9e293406776'
p503
sS'20140326_10'
p504
g503
sS'20140326_13'
p505
S'9482e992-9491-468f-89b0-e9e293406776'
p506
sS'20140326_12'
p507
g506
sS'20140326_14'
p508
S'9482e992-9491-468f-89b0-e9e293406776'
p509
sS'20140404_10'
p510
g476
sS'20140404_11'
p511
S'b851ca6c-8885-44a4-96b4-5c93d2975c9a'
p512
sS'20140404_12'
p513
S'b851ca6c-8885-44a4-96b4-5c93d2975c9a'
p514
sS'20140404_13'
p515
g514
sS'20140404_14'
p516
g514
sS'20140515_11'
p517
S'0efd2316-feb9-461c-b102-045aef8e22fe'
p518
sS'20140515_10'
p519
S'0efd2316-feb9-461c-b102-045aef8e22fe'
p520
sS'20140515_13'
p521
S'0efd2316-feb9-461c-b102-045aef8e22fe'
p522
sS'20140515_12'
p523
g518
sS'20140313_07'
p524
S'b851ca6c-8885-44a4-96b4-5c93d2975c9a'
p525
sS'20140307_14'
p526
S'0efd2316-feb9-461c-b102-045aef8e22fe'
p527
sS'20140318_06'
p528
g454
sS'20140318_05'
p529
S'db22b367-f7ba-4070-b582-dd8bbacce9fb'
p530
sS'20140311_14'
p531
g402
sS'20140307_10'
p532
g484
sS'20140307_11'
p533
S'0efd2316-feb9-461c-b102-045aef8e22fe'
p534
sS'20140307_12'
p535
g527
sS'20140307_13'
p536
g527
sS'20140318_09'
p537
S'db22b367-f7ba-4070-b582-dd8bbacce9fb'
p538
sS'20140318_08'
p539
g454
sS'20140408_10'
p540
S'0efd2316-feb9-461c-b102-045aef8e22fe'
p541
sS'20140408_11'
p542
g541
sS'20140408_12'
p543
g541
sS'20140408_13'
p544
g541
sS'20140313_08'
p545
g525
sS'20140313_09'
p546
g497
sS'20140326_08'
p547
S'9482e992-9491-468f-89b0-e9e293406776'
p548
sS'20140326_09'
p549
g503
sS'20140326_07'
p550
g548
sS'20140515_08'
p551
S'0efd2316-feb9-461c-b102-045aef8e22fe'
p552
sS'20140515_09'
p553
g520
sS'20140515_06'
p554
S'0efd2316-feb9-461c-b102-045aef8e22fe'
p555
sS'20140515_07'
p556
g555
sS'20140520_13'
p557
S'47d0b7f6-6413-47ba-ab4f-76520ce148e2'
p558
sS'20140520_12'
p559
S'47d0b7f6-6413-47ba-ab4f-76520ce148e2'
p560
sS'20140423_13'
p561
S'47d0b7f6-6413-47ba-ab4f-76520ce148e2'
p562
sS'20140423_12'
p563
S'47d0b7f6-6413-47ba-ab4f-76520ce148e2'
p564
sS'20140423_11'
p565
S'47d0b7f6-6413-47ba-ab4f-76520ce148e2'
p566
sS'20140423_10'
p567
g566
sS'20140311_07'
p568
S'db22b367-f7ba-4070-b582-dd8bbacce9fb'
p569
sS'20140318_10'
p570
g538
sS'20140318_11'
p571
g538
sS'20140318_12'
p572
g538
sS'20140318_13'
p573
g538
sS'20140311_08'
p574
g569
sS'20140311_09'
p575
g468
sS'20140422_07'
p576
S'db22b367-f7ba-4070-b582-dd8bbacce9fb'
p577
sS'20140422_06'
p578
g577
sS'20140422_09'
p579
S'db22b367-f7ba-4070-b582-dd8bbacce9fb'
p580
sS'20140422_08'
p581
g580
sS'20140408_07'
p582
S'0efd2316-feb9-461c-b102-045aef8e22fe'
p583
sS'20140305_13'
p584
g494
sS'20140423_08'
p585
S'47d0b7f6-6413-47ba-ab4f-76520ce148e2'
p586
sS'20140423_09'
p587
S'47d0b7f6-6413-47ba-ab4f-76520ce148e2'
p588
sS'20140520_08'
p589
g417
sS'20140520_09'
p590
g417
sS'20140520_06'
p591
S'47d0b7f6-6413-47ba-ab4f-76520ce148e2'
p592
sS'20140520_07'
p593
g417
sS'20140423_06'
p594
S'47d0b7f6-6413-47ba-ab4f-76520ce148e2'
p595
sS'20140423_07'
p596
g595
ssS'0cd55e4e-f2ce-4fc1-868a-2a07df66c04d'
p597
(dp598
S'20140507_07'
p599
S'b851ca6c-8885-44a4-96b4-5c93d2975c9a'
p600
sS'20140507_06'
p601
g600
sS'20140507_14'
p602
S'b851ca6c-8885-44a4-96b4-5c93d2975c9a'
p603
sS'20140507_12'
p604
S'b851ca6c-8885-44a4-96b4-5c93d2975c9a'
p605
sS'20140507_13'
p606
g603
sS'20140507_10'
p607
S'b851ca6c-8885-44a4-96b4-5c93d2975c9a'
p608
sS'20140507_11'
p609
g605
sS'20140507_09'
p610
g608
sS'20140507_08'
p611
g600
ssS'530ca963-3d54-458e-a170-1f9e437df8bf'
p612
(dp613
S'20140422_10'
p614
S'b851ca6c-8885-44a4-96b4-5c93d2975c9a'
p615
sS'20140422_11'
p616
S'b851ca6c-8885-44a4-96b4-5c93d2975c9a'
p617
sS'20140422_12'
p618
S'b851ca6c-8885-44a4-96b4-5c93d2975c9a'
p619
sS'20140422_13'
p620
g619
sS'20140415_12'
p621
S'db22b367-f7ba-4070-b582-dd8bbacce9fb'
p622
sS'20140415_13'
p623
g622
sS'20140415_10'
p624
S'db22b367-f7ba-4070-b582-dd8bbacce9fb'
p625
sS'20140415_11'
p626
S'db22b367-f7ba-4070-b582-dd8bbacce9fb'
p627
sS'20140410_08'
p628
S'fee8a191-c3ca-42fd-b027-65cf73b2bf8c'
p629
sS'20140410_09'
p630
S'fee8a191-c3ca-42fd-b027-65cf73b2bf8c'
p631
sS'20140410_06'
p632
S'fee8a191-c3ca-42fd-b027-65cf73b2bf8c'
p633
sS'20140410_07'
p634
g633
sS'20140422_07'
p635
S'b851ca6c-8885-44a4-96b4-5c93d2975c9a'
p636
sS'20140422_06'
p637
S'b851ca6c-8885-44a4-96b4-5c93d2975c9a'
p638
sS'20140422_09'
p639
g636
sS'20140422_08'
p640
g636
sS'20140415_09'
p641
S'db22b367-f7ba-4070-b582-dd8bbacce9fb'
p642
sS'20140415_08'
p643
S'db22b367-f7ba-4070-b582-dd8bbacce9fb'
p644
sS'20140415_07'
p645
S'db22b367-f7ba-4070-b582-dd8bbacce9fb'
p646
sS'20140415_06'
p647
S'db22b367-f7ba-4070-b582-dd8bbacce9fb'
p648
sS'20140415_00'
p649
S'db22b367-f7ba-4070-b582-dd8bbacce9fb'
p650
sS'20140410_11'
p651
S'fee8a191-c3ca-42fd-b027-65cf73b2bf8c'
p652
sS'20140410_10'
p653
g652
sS'20140410_13'
p654
g652
sS'20140410_12'
p655
g652
ssS'378ab3fb-0425-47aa-9c66-83fe34a656a2'
p656
(dp657
S'20140528_11'
p658
S'324f3626-d4c7-4622-bf82-3314cb546cfc'
p659
sS'20140528_10'
p660
g659
sS'20140528_06'
p661
S'324f3626-d4c7-4622-bf82-3314cb546cfc'
p662
sS'20140528_07'
p663
g662
sS'20140528_13'
p664
S'324f3626-d4c7-4622-bf82-3314cb546cfc'
p665
sS'20140528_12'
p666
g659
sS'20140528_08'
p667
g662
sS'20140528_09'
p668
S'324f3626-d4c7-4622-bf82-3314cb546cfc'
p669
ssS'ea5e4ec6-d005-41c0-84f2-0be84cec82c8'
p670
(dp671
S'20140417_07'
p672
S'0efd2316-feb9-461c-b102-045aef8e22fe'
p673
sS'20140417_06'
p674
S'0efd2316-feb9-461c-b102-045aef8e22fe'
p675
sS'20140417_09'
p676
S'0efd2316-feb9-461c-b102-045aef8e22fe'
p677
sS'20140417_08'
p678
g677
sS'20140403_06'
p679
S'324f3626-d4c7-4622-bf82-3314cb546cfc'
p680
sS'20140403_07'
p681
g680
sS'20140327_07'
p682
S'db22b367-f7ba-4070-b582-dd8bbacce9fb'
p683
sS'20140327_09'
p684
S'db22b367-f7ba-4070-b582-dd8bbacce9fb'
p685
sS'20140327_08'
p686
g683
sS'20140403_08'
p687
g680
sS'20140403_09'
p688
S'324f3626-d4c7-4622-bf82-3314cb546cfc'
p689
sS'20140411_07'
p690
S'3da914c6-ab24-435c-aa9f-8facdfc1b5f7'
p691
sS'20140411_06'
p692
g691
sS'20140411_09'
p693
S'3da914c6-ab24-435c-aa9f-8facdfc1b5f7'
p694
sS'20140411_08'
p695
g694
sS'20140417_10'
p696
S'0efd2316-feb9-461c-b102-045aef8e22fe'
p697
sS'20140417_11'
p698
S'0efd2316-feb9-461c-b102-045aef8e22fe'
p699
sS'20140417_12'
p700
g699
sS'20140417_13'
p701
g699
sS'20140327_14'
p702
S'db22b367-f7ba-4070-b582-dd8bbacce9fb'
p703
sS'20140327_15'
p704
g703
sS'20140327_12'
p705
g703
sS'20140327_13'
p706
g703
sS'20140327_10'
p707
S'db22b367-f7ba-4070-b582-dd8bbacce9fb'
p708
sS'20140327_11'
p709
g703
sS'20140407_13'
p710
S'db22b367-f7ba-4070-b582-dd8bbacce9fb'
p711
sS'20140429_11'
p712
S'db22b367-f7ba-4070-b582-dd8bbacce9fb'
p713
sS'20140429_10'
p714
S'db22b367-f7ba-4070-b582-dd8bbacce9fb'
p715
sS'20140429_13'
p716
S'db22b367-f7ba-4070-b582-dd8bbacce9fb'
p717
sS'20140429_12'
p718
S'db22b367-f7ba-4070-b582-dd8bbacce9fb'
p719
sS'20140407_11'
p720
S'db22b367-f7ba-4070-b582-dd8bbacce9fb'
p721
sS'20140407_10'
p722
S'db22b367-f7ba-4070-b582-dd8bbacce9fb'
p723
sS'20140523_09'
p724
S'9482e992-9491-468f-89b0-e9e293406776'
p725
sS'20140523_08'
p726
S'9482e992-9491-468f-89b0-e9e293406776'
p727
sS'20140411_12'
p728
S'3da914c6-ab24-435c-aa9f-8facdfc1b5f7'
p729
sS'20140411_13'
p730
g729
sS'20140411_10'
p731
g694
sS'20140411_11'
p732
S'3da914c6-ab24-435c-aa9f-8facdfc1b5f7'
p733
sS'20140407_09'
p734
S'db22b367-f7ba-4070-b582-dd8bbacce9fb'
p735
sS'20140523_07'
p736
S'9482e992-9491-468f-89b0-e9e293406776'
p737
sS'20140523_06'
p738
g737
sS'20140429_06'
p739
S'db22b367-f7ba-4070-b582-dd8bbacce9fb'
p740
sS'20140429_07'
p741
g740
sS'20140429_08'
p742
g715
sS'20140429_09'
p743
g715
sS'20140411_14'
p744
S'3da914c6-ab24-435c-aa9f-8facdfc1b5f7'
p745
sS'20140407_06'
p746
S'db22b367-f7ba-4070-b582-dd8bbacce9fb'
p747
sS'20140407_07'
p748
g747
sS'20140407_12'
p749
S'db22b367-f7ba-4070-b582-dd8bbacce9fb'
p750
sS'20140523_10'
p751
g725
sS'20140523_11'
p752
S'9482e992-9491-468f-89b0-e9e293406776'
p753
sS'20140523_12'
p754
S'9482e992-9491-468f-89b0-e9e293406776'
p755
sS'20140523_13'
p756
g755
sS'20140407_08'
p757
g735
sS'20140514_13'
p758
S'b851ca6c-8885-44a4-96b4-5c93d2975c9a'
p759
sS'20140514_12'
p760
g759
sS'20140324_13'
p761
S'fee8a191-c3ca-42fd-b027-65cf73b2bf8c'
p762
sS'20140324_12'
p763
S'fee8a191-c3ca-42fd-b027-65cf73b2bf8c'
p764
sS'20140324_11'
p765
g764
sS'20140324_10'
p766
g764
sS'20140324_15'
p767
g762
sS'20140324_14'
p768
g762
sS'20140409_06'
p769
S'0efd2316-feb9-461c-b102-045aef8e22fe'
p770
sS'20140409_07'
p771
S'0efd2316-feb9-461c-b102-045aef8e22fe'
p772
sS'20140324_07'
p773
S'fee8a191-c3ca-42fd-b027-65cf73b2bf8c'
p774
sS'20140324_08'
p775
g774
sS'20140324_09'
p776
S'fee8a191-c3ca-42fd-b027-65cf73b2bf8c'
p777
sS'20140516_09'
p778
S'3da914c6-ab24-435c-aa9f-8facdfc1b5f7'
p779
sS'20140516_08'
p780
g779
sS'20140514_07'
p781
S'b851ca6c-8885-44a4-96b4-5c93d2975c9a'
p782
sS'20140514_06'
p783
S'b851ca6c-8885-44a4-96b4-5c93d2975c9a'
p784
sS'20140514_09'
p785
g782
sS'20140514_08'
p786
g782
sS'20140409_13'
p787
S'0efd2316-feb9-461c-b102-045aef8e22fe'
p788
sS'20140516_06'
p789
S'3da914c6-ab24-435c-aa9f-8facdfc1b5f7'
p790
sS'20140409_11'
p791
S'0efd2316-feb9-461c-b102-045aef8e22fe'
p792
sS'20140409_10'
p793
S'0efd2316-feb9-461c-b102-045aef8e22fe'
p794
sS'20140325_09'
p795
S'324f3626-d4c7-4622-bf82-3314cb546cfc'
p796
sS'20140325_08'
p797
S'324f3626-d4c7-4622-bf82-3314cb546cfc'
p798
sS'20140516_07'
p799
g790
sS'20140325_07'
p800
g798
sS'20140409_12'
p801
g788
sS'20140409_08'
p802
S'0efd2316-feb9-461c-b102-045aef8e22fe'
p803
sS'20140409_09'
p804
g794
sS'20140514_10'
p805
g782
sS'20140514_11'
p806
g759
sS'20140516_10'
p807
g779
sS'20140516_11'
p808
S'3da914c6-ab24-435c-aa9f-8facdfc1b5f7'
p809
sS'20140516_12'
p810
g809
sS'20140516_13'
p811
g809
sS'20140430_13'
p812
S'3da914c6-ab24-435c-aa9f-8facdfc1b5f7'
p813
sS'20140430_12'
p814
g813
sS'20140430_11'
p815
S'3da914c6-ab24-435c-aa9f-8facdfc1b5f7'
p816
sS'20140430_10'
p817
g816
sS'20140508_13'
p818
S'c0d88b90-e1b4-4bf4-b43d-bf4091346b2c'
p819
sS'20140508_12'
p820
g819
sS'20140508_11'
p821
g819
sS'20140508_10'
p822
g819
sS'20140325_10'
p823
g796
sS'20140325_11'
p824
S'324f3626-d4c7-4622-bf82-3314cb546cfc'
p825
sS'20140325_12'
p826
g825
sS'20140325_13'
p827
S'324f3626-d4c7-4622-bf82-3314cb546cfc'
p828
sS'20140325_14'
p829
g828
sS'20140430_08'
p830
S'3da914c6-ab24-435c-aa9f-8facdfc1b5f7'
p831
sS'20140430_09'
p832
S'3da914c6-ab24-435c-aa9f-8facdfc1b5f7'
p833
sS'20140520_11'
p834
S'b851ca6c-8885-44a4-96b4-5c93d2975c9a'
p835
sS'20140520_10'
p836
S'b851ca6c-8885-44a4-96b4-5c93d2975c9a'
p837
sS'20140430_06'
p838
S'3da914c6-ab24-435c-aa9f-8facdfc1b5f7'
p839
sS'20140430_07'
p840
g839
sS'20140423_13'
p841
S'0efd2316-feb9-461c-b102-045aef8e22fe'
p842
sS'20140423_12'
p843
g842
sS'20140423_11'
p844
g842
sS'20140423_10'
p845
g842
sS'20140407_14'
p846
S'db22b367-f7ba-4070-b582-dd8bbacce9fb'
p847
sS'20140508_06'
p848
S'c0d88b90-e1b4-4bf4-b43d-bf4091346b2c'
p849
sS'20140508_07'
p850
g849
sS'20140508_08'
p851
S'c0d88b90-e1b4-4bf4-b43d-bf4091346b2c'
p852
sS'20140508_09'
p853
g852
sS'20140403_11'
p854
S'324f3626-d4c7-4622-bf82-3314cb546cfc'
p855
sS'20140403_10'
p856
S'324f3626-d4c7-4622-bf82-3314cb546cfc'
p857
sS'20140403_13'
p858
S'324f3626-d4c7-4622-bf82-3314cb546cfc'
p859
sS'20140403_12'
p860
g859
sS'20140423_08'
p861
S'0efd2316-feb9-461c-b102-045aef8e22fe'
p862
sS'20140423_09'
p863
S'0efd2316-feb9-461c-b102-045aef8e22fe'
p864
sS'20140520_08'
p865
g837
sS'20140520_09'
p866
g837
sS'20140520_06'
p867
S'b851ca6c-8885-44a4-96b4-5c93d2975c9a'
p868
sS'20140520_07'
p869
S'b851ca6c-8885-44a4-96b4-5c93d2975c9a'
p870
sS'20140423_06'
p871
S'0efd2316-feb9-461c-b102-045aef8e22fe'
p872
sS'20140423_07'
p873
g872
ssS'cb1b882a-30fb-429f-abf3-ccc76dfd073b'
p874
(dp875
S'20140318_07'
p876
S'9482e992-9491-468f-89b0-e9e293406776'
p877
sS'20140318_06'
p878
g877
sS'20140318_05'
p879
g877
sS'20140410_12'
p880
S'db22b367-f7ba-4070-b582-dd8bbacce9fb'
p881
sS'20140305_14'
p882
S'b851ca6c-8885-44a4-96b4-5c93d2975c9a'
p883
sS'20140430_07'
p884
S'db22b367-f7ba-4070-b582-dd8bbacce9fb'
p885
sS'20140318_09'
p886
S'9482e992-9491-468f-89b0-e9e293406776'
p887
sS'20140318_08'
p888
g877
sS'20140305_12'
p889
S'b851ca6c-8885-44a4-96b4-5c93d2975c9a'
p890
sS'20140417_06'
p891
S'fee8a191-c3ca-42fd-b027-65cf73b2bf8c'
p892
sS'20140417_07'
p893
S'fee8a191-c3ca-42fd-b027-65cf73b2bf8c'
p894
sS'20140305_09'
p895
S'b851ca6c-8885-44a4-96b4-5c93d2975c9a'
p896
sS'20140305_08'
p897
S'b851ca6c-8885-44a4-96b4-5c93d2975c9a'
p898
sS'20140324_07'
p899
S'3da914c6-ab24-435c-aa9f-8facdfc1b5f7'
p900
sS'20140324_08'
p901
g900
sS'20140324_09'
p902
S'3da914c6-ab24-435c-aa9f-8facdfc1b5f7'
p903
sS'20140305_07'
p904
g898
sS'20140417_09'
p905
g894
sS'20140417_08'
p906
g894
sS'20140317_11'
p907
S'3da914c6-ab24-435c-aa9f-8facdfc1b5f7'
p908
sS'20140317_10'
p909
g908
sS'20140317_13'
p910
g908
sS'20140317_12'
p911
g908
sS'20140303_10'
p912
S'b851ca6c-8885-44a4-96b4-5c93d2975c9a'
p913
sS'20140303_08'
p914
S'b851ca6c-8885-44a4-96b4-5c93d2975c9a'
p915
sS'20140303_12'
p916
S'b851ca6c-8885-44a4-96b4-5c93d2975c9a'
p917
sS'20140303_13'
p918
S'b851ca6c-8885-44a4-96b4-5c93d2975c9a'
p919
sS'20140303_14'
p920
g919
sS'20140430_08'
p921
S'db22b367-f7ba-4070-b582-dd8bbacce9fb'
p922
sS'20140430_09'
p923
S'db22b367-f7ba-4070-b582-dd8bbacce9fb'
p924
sS'20140410_08'
p925
S'db22b367-f7ba-4070-b582-dd8bbacce9fb'
p926
sS'20140410_09'
p927
g926
sS'20140410_06'
p928
S'db22b367-f7ba-4070-b582-dd8bbacce9fb'
p929
sS'20140410_07'
p930
S'db22b367-f7ba-4070-b582-dd8bbacce9fb'
p931
sS'20140430_06'
p932
g885
sS'20140423_14'
p933
S'3da914c6-ab24-435c-aa9f-8facdfc1b5f7'
p934
sS'20140423_13'
p935
g934
sS'20140423_12'
p936
g934
sS'20140423_11'
p937
S'3da914c6-ab24-435c-aa9f-8facdfc1b5f7'
p938
sS'20140423_10'
p939
g938
sS'20140311_07'
p940
S'9482e992-9491-468f-89b0-e9e293406776'
p941
sS'20140318_10'
p942
g887
sS'20140318_11'
p943
g887
sS'20140318_12'
p944
S'9482e992-9491-468f-89b0-e9e293406776'
p945
sS'20140318_13'
p946
g945
sS'20140311_08'
p947
g941
sS'20140311_09'
p948
g941
sS'20140324_13'
p949
S'3da914c6-ab24-435c-aa9f-8facdfc1b5f7'
p950
sS'20140324_12'
p951
S'3da914c6-ab24-435c-aa9f-8facdfc1b5f7'
p952
sS'20140324_11'
p953
g952
sS'20140324_10'
p954
g952
sS'20140417_10'
p955
g894
sS'20140417_11'
p956
S'fee8a191-c3ca-42fd-b027-65cf73b2bf8c'
p957
sS'20140324_15'
p958
g950
sS'20140324_14'
p959
g950
sS'20140410_13'
p960
S'db22b367-f7ba-4070-b582-dd8bbacce9fb'
p961
sS'20140317_06'
p962
S'3da914c6-ab24-435c-aa9f-8facdfc1b5f7'
p963
sS'20140317_07'
p964
g963
sS'20140303_09'
p965
g915
sS'20140317_05'
p966
g963
sS'20140305_13'
p967
S'b851ca6c-8885-44a4-96b4-5c93d2975c9a'
p968
sS'20140305_10'
p969
g896
sS'20140317_08'
p970
g963
sS'20140317_09'
p971
g908
sS'20140305_11'
p972
S'b851ca6c-8885-44a4-96b4-5c93d2975c9a'
p973
sS'20140423_08'
p974
S'3da914c6-ab24-435c-aa9f-8facdfc1b5f7'
p975
sS'20140423_09'
p976
g975
sS'20140303_11'
p977
S'b851ca6c-8885-44a4-96b4-5c93d2975c9a'
p978
sS'20140410_11'
p979
g881
sS'20140410_10'
p980
g881
sS'20140423_06'
p981
g975
sS'20140423_07'
p982
g975
sS'20140430_13'
p983
S'db22b367-f7ba-4070-b582-dd8bbacce9fb'
p984
sS'20140430_12'
p985
g984
sS'20140430_11'
p986
S'db22b367-f7ba-4070-b582-dd8bbacce9fb'
p987
sS'20140430_10'
p988
g924
ssS'78dc7eeb-80f5-4eb7-84a6-223ae7a98da3'
p989
(dp990
S'20140327_07'
p991
S'3da914c6-ab24-435c-aa9f-8facdfc1b5f7'
p992
sS'20140327_09'
p993
S'3da914c6-ab24-435c-aa9f-8facdfc1b5f7'
p994
sS'20140327_08'
p995
g992
sS'20140331_11'
p996
S'b851ca6c-8885-44a4-96b4-5c93d2975c9a'
p997
sS'20140331_10'
p998
S'b851ca6c-8885-44a4-96b4-5c93d2975c9a'
p999
sS'20140331_13'
p1000
S'b851ca6c-8885-44a4-96b4-5c93d2975c9a'
p1001
sS'20140331_12'
p1002
S'b851ca6c-8885-44a4-96b4-5c93d2975c9a'
p1003
sS'20140414_14'
p1004
S'3da914c6-ab24-435c-aa9f-8facdfc1b5f7'
p1005
sS'20140414_11'
p1006
S'3da914c6-ab24-435c-aa9f-8facdfc1b5f7'
p1007
sS'20140414_10'
p1008
S'3da914c6-ab24-435c-aa9f-8facdfc1b5f7'
p1009
sS'20140414_13'
p1010
g1005
sS'20140414_12'
p1011
S'3da914c6-ab24-435c-aa9f-8facdfc1b5f7'
p1012
sS'20140327_14'
p1013
S'3da914c6-ab24-435c-aa9f-8facdfc1b5f7'
p1014
sS'20140327_12'
p1015
S'3da914c6-ab24-435c-aa9f-8facdfc1b5f7'
p1016
sS'20140327_13'
p1017
g1014
sS'20140327_10'
p1018
g994
sS'20140327_11'
p1019
g1016
sS'20140319_12'
p1020
S'3da914c6-ab24-435c-aa9f-8facdfc1b5f7'
p1021
sS'20140319_11'
p1022
g1021
sS'20140319_10'
p1023
g1021
sS'20140414_08'
p1024
S'3da914c6-ab24-435c-aa9f-8facdfc1b5f7'
p1025
sS'20140414_09'
p1026
g1009
sS'20140414_06'
p1027
S'3da914c6-ab24-435c-aa9f-8facdfc1b5f7'
p1028
sS'20140414_07'
p1029
g1025
sS'20140319_08'
p1030
S'3da914c6-ab24-435c-aa9f-8facdfc1b5f7'
p1031
sS'20140319_09'
p1032
S'3da914c6-ab24-435c-aa9f-8facdfc1b5f7'
p1033
sS'20140519_14'
p1034
S'0efd2316-feb9-461c-b102-045aef8e22fe'
p1035
sS'20140319_06'
p1036
g1031
sS'20140319_07'
p1037
g1031
sS'20140519_11'
p1038
S'0efd2316-feb9-461c-b102-045aef8e22fe'
p1039
sS'20140519_10'
p1040
S'0efd2316-feb9-461c-b102-045aef8e22fe'
p1041
sS'20140519_13'
p1042
g1035
sS'20140519_12'
p1043
S'0efd2316-feb9-461c-b102-045aef8e22fe'
p1044
sS'20140519_06'
p1045
S'0efd2316-feb9-461c-b102-045aef8e22fe'
p1046
sS'20140519_07'
p1047
g1046
sS'20140519_08'
p1048
S'0efd2316-feb9-461c-b102-045aef8e22fe'
p1049
sS'20140519_09'
p1050
g1049
sS'20140331_08'
p1051
S'b851ca6c-8885-44a4-96b4-5c93d2975c9a'
p1052
sS'20140331_09'
p1053
g1052
sS'20140507_07'
p1054
S'db22b367-f7ba-4070-b582-dd8bbacce9fb'
p1055
sS'20140507_06'
p1056
g1055
sS'20140507_09'
p1057
S'db22b367-f7ba-4070-b582-dd8bbacce9fb'
p1058
sS'20140507_08'
p1059
S'db22b367-f7ba-4070-b582-dd8bbacce9fb'
p1060
sS'20140331_06'
p1061
S'b851ca6c-8885-44a4-96b4-5c93d2975c9a'
p1062
sS'20140331_07'
p1063
g1062
sS'20140312_07'
p1064
S'9482e992-9491-468f-89b0-e9e293406776'
p1065
sS'20140312_09'
p1066
S'9482e992-9491-468f-89b0-e9e293406776'
p1067
sS'20140312_08'
p1068
S'9482e992-9491-468f-89b0-e9e293406776'
p1069
sS'20140507_15'
p1070
S'db22b367-f7ba-4070-b582-dd8bbacce9fb'
p1071
sS'20140507_12'
p1072
g1058
sS'20140507_13'
p1073
g1058
sS'20140507_10'
p1074
g1058
sS'20140507_11'
p1075
g1058
sS'20140409_14'
p1076
S'2360f815-dcaa-4ded-9a86-a3b0c9f67450'
p1077
sS'20140409_13'
p1078
S'2360f815-dcaa-4ded-9a86-a3b0c9f67450'
p1079
sS'20140409_12'
p1080
g1079
sS'20140409_11'
p1081
S'2360f815-dcaa-4ded-9a86-a3b0c9f67450'
p1082
sS'20140409_10'
p1083
S'2360f815-dcaa-4ded-9a86-a3b0c9f67450'
p1084
sS'20140307_07'
p1085
S'b851ca6c-8885-44a4-96b4-5c93d2975c9a'
p1086
sS'20140312_12'
p1087
S'9482e992-9491-468f-89b0-e9e293406776'
p1088
sS'20140312_13'
p1089
S'9482e992-9491-468f-89b0-e9e293406776'
p1090
sS'20140312_10'
p1091
g1067
sS'20140312_11'
p1092
S'9482e992-9491-468f-89b0-e9e293406776'
p1093
sS'20140307_09'
p1094
S'b851ca6c-8885-44a4-96b4-5c93d2975c9a'
p1095
sS'20140307_08'
p1096
g1086
sS'20140512_14'
p1097
S'2360f815-dcaa-4ded-9a86-a3b0c9f67450'
p1098
sS'20140314_07'
p1099
S'b851ca6c-8885-44a4-96b4-5c93d2975c9a'
p1100
sS'20140314_09'
p1101
S'b851ca6c-8885-44a4-96b4-5c93d2975c9a'
p1102
sS'20140314_08'
p1103
g1100
sS'20140409_08'
p1104
S'2360f815-dcaa-4ded-9a86-a3b0c9f67450'
p1105
sS'20140409_09'
p1106
g1105
sS'20140409_07'
p1107
g1105
sS'20140307_14'
p1108
S'b851ca6c-8885-44a4-96b4-5c93d2975c9a'
p1109
sS'20140307_15'
p1110
g1109
sS'20140307_10'
p1111
g1095
sS'20140307_11'
p1112
g1095
sS'20140307_12'
p1113
g1109
sS'20140307_13'
p1114
g1109
sS'20140508_13'
p1115
S'b851ca6c-8885-44a4-96b4-5c93d2975c9a'
p1116
sS'20140508_12'
p1117
S'b851ca6c-8885-44a4-96b4-5c93d2975c9a'
p1118
sS'20140508_11'
p1119
g1118
sS'20140508_10'
p1120
S'b851ca6c-8885-44a4-96b4-5c93d2975c9a'
p1121
sS'20140314_10'
p1122
S'b851ca6c-8885-44a4-96b4-5c93d2975c9a'
p1123
sS'20140314_11'
p1124
g1123
sS'20140314_12'
p1125
S'b851ca6c-8885-44a4-96b4-5c93d2975c9a'
p1126
sS'20140314_13'
p1127
g1126
sS'20140314_14'
p1128
S'b851ca6c-8885-44a4-96b4-5c93d2975c9a'
p1129
sS'20140320_17'
p1130
S'db22b367-f7ba-4070-b582-dd8bbacce9fb'
p1131
sS'20140320_16'
p1132
g1131
sS'20140320_15'
p1133
g1131
sS'20140320_14'
p1134
S'db22b367-f7ba-4070-b582-dd8bbacce9fb'
p1135
sS'20140320_13'
p1136
g1135
sS'20140320_12'
p1137
S'db22b367-f7ba-4070-b582-dd8bbacce9fb'
p1138
sS'20140320_11'
p1139
S'db22b367-f7ba-4070-b582-dd8bbacce9fb'
p1140
sS'20140320_10'
p1141
S'db22b367-f7ba-4070-b582-dd8bbacce9fb'
p1142
sS'20140423_13'
p1143
S'fee8a191-c3ca-42fd-b027-65cf73b2bf8c'
p1144
sS'20140423_12'
p1145
S'fee8a191-c3ca-42fd-b027-65cf73b2bf8c'
p1146
sS'20140423_11'
p1147
S'fee8a191-c3ca-42fd-b027-65cf73b2bf8c'
p1148
sS'20140423_10'
p1149
g1148
sS'20140508_06'
p1150
S'b851ca6c-8885-44a4-96b4-5c93d2975c9a'
p1151
sS'20140508_07'
p1152
S'b851ca6c-8885-44a4-96b4-5c93d2975c9a'
p1153
sS'20140312_14'
p1154
g1090
sS'20140508_08'
p1155
g1121
sS'20140508_09'
p1156
g1121
sS'20140423_08'
p1157
S'fee8a191-c3ca-42fd-b027-65cf73b2bf8c'
p1158
sS'20140423_09'
p1159
S'fee8a191-c3ca-42fd-b027-65cf73b2bf8c'
p1160
sS'20140319_05'
p1161
g1031
sS'20140423_06'
p1162
S'fee8a191-c3ca-42fd-b027-65cf73b2bf8c'
p1163
sS'20140423_07'
p1164
g1163
ssS'455d5f5c-4ea2-4215-8823-e7574b3c6dca'
p1165
(dp1166
S'20140311_14'
p1167
S'47d0b7f6-6413-47ba-ab4f-76520ce148e2'
p1168
sS'20140311_13'
p1169
S'47d0b7f6-6413-47ba-ab4f-76520ce148e2'
p1170
sS'20140311_12'
p1171
g1170
sS'20140311_11'
p1172
S'47d0b7f6-6413-47ba-ab4f-76520ce148e2'
p1173
sS'20140311_10'
p1174
g1173
sS'20140306_14'
p1175
S'db22b367-f7ba-4070-b582-dd8bbacce9fb'
p1176
sS'20140306_13'
p1177
g1176
sS'20140306_12'
p1178
S'db22b367-f7ba-4070-b582-dd8bbacce9fb'
p1179
sS'20140306_11'
p1180
S'db22b367-f7ba-4070-b582-dd8bbacce9fb'
p1181
sS'20140306_10'
p1182
g1181
sS'20140404_07'
p1183
S'db22b367-f7ba-4070-b582-dd8bbacce9fb'
p1184
sS'20140404_06'
p1185
S'db22b367-f7ba-4070-b582-dd8bbacce9fb'
p1186
sS'20140411_07'
p1187
S'fee8a191-c3ca-42fd-b027-65cf73b2bf8c'
p1188
sS'20140411_06'
p1189
S'fee8a191-c3ca-42fd-b027-65cf73b2bf8c'
p1190
sS'20140506_11'
p1191
S'47d0b7f6-6413-47ba-ab4f-76520ce148e2'
p1192
sS'20140506_10'
p1193
S'47d0b7f6-6413-47ba-ab4f-76520ce148e2'
p1194
sS'20140506_13'
p1195
g1192
sS'20140506_12'
p1196
g1192
sS'20140311_07'
p1197
S'47d0b7f6-6413-47ba-ab4f-76520ce148e2'
p1198
sS'20140411_10'
p1199
S'fee8a191-c3ca-42fd-b027-65cf73b2bf8c'
p1200
sS'20140411_11'
p1201
S'fee8a191-c3ca-42fd-b027-65cf73b2bf8c'
p1202
sS'20140311_08'
p1203
g1198
sS'20140311_09'
p1204
S'47d0b7f6-6413-47ba-ab4f-76520ce148e2'
p1205
sS'20140411_09'
p1206
g1200
sS'20140411_08'
p1207
g1188
sS'20140404_09'
p1208
S'db22b367-f7ba-4070-b582-dd8bbacce9fb'
p1209
sS'20140306_07'
p1210
S'db22b367-f7ba-4070-b582-dd8bbacce9fb'
p1211
sS'20140404_08'
p1212
g1184
sS'20140306_08'
p1213
S'db22b367-f7ba-4070-b582-dd8bbacce9fb'
p1214
sS'20140306_09'
p1215
g1214
sS'20140319_17'
p1216
S'9482e992-9491-468f-89b0-e9e293406776'
p1217
sS'20140319_16'
p1218
g1217
sS'20140319_15'
p1219
g1217
sS'20140319_14'
p1220
g1217
sS'20140319_13'
p1221
g1217
sS'20140319_12'
p1222
g1217
sS'20140319_11'
p1223
S'9482e992-9491-468f-89b0-e9e293406776'
p1224
sS'20140319_10'
p1225
g1224
sS'20140404_10'
p1226
g1209
sS'20140404_12'
p1227
S'db22b367-f7ba-4070-b582-dd8bbacce9fb'
p1228
sS'20140404_13'
p1229
S'db22b367-f7ba-4070-b582-dd8bbacce9fb'
p1230
sS'20140506_08'
p1231
g1194
sS'20140506_09'
p1232
g1194
sS'20140506_06'
p1233
S'47d0b7f6-6413-47ba-ab4f-76520ce148e2'
p1234
sS'20140506_07'
p1235
g1234
ssS'b888ad94-67cd-4be5-8035-249baa920027'
p1236
(dp1237
S'20140516_11'
p1238
S'9482e992-9491-468f-89b0-e9e293406776'
p1239
sS'20140523_11'
p1240
S'324f3626-d4c7-4622-bf82-3314cb546cfc'
p1241
sS'20140429_06'
p1242
S'0efd2316-feb9-461c-b102-045aef8e22fe'
p1243
sS'20140429_07'
p1244
S'0efd2316-feb9-461c-b102-045aef8e22fe'
p1245
sS'20140429_08'
p1246
S'0efd2316-feb9-461c-b102-045aef8e22fe'
p1247
sS'20140429_09'
p1248
g1247
sS'20140516_09'
p1249
S'9482e992-9491-468f-89b0-e9e293406776'
p1250
sS'20140516_08'
p1251
g1250
sS'20140424_12'
p1252
S'0efd2316-feb9-461c-b102-045aef8e22fe'
p1253
sS'20140507_13'
p1254
S'0efd2316-feb9-461c-b102-045aef8e22fe'
p1255
sS'20140507_10'
p1256
S'0efd2316-feb9-461c-b102-045aef8e22fe'
p1257
sS'20140507_11'
p1258
S'0efd2316-feb9-461c-b102-045aef8e22fe'
p1259
sS'20140523_10'
p1260
S'324f3626-d4c7-4622-bf82-3314cb546cfc'
p1261
sS'20140507_12'
p1262
g1255
sS'20140523_12'
p1263
S'324f3626-d4c7-4622-bf82-3314cb546cfc'
p1264
sS'20140523_13'
p1265
g1264
sS'20140516_07'
p1266
S'9482e992-9491-468f-89b0-e9e293406776'
p1267
sS'20140516_06'
p1268
g1267
sS'20140424_13'
p1269
S'0efd2316-feb9-461c-b102-045aef8e22fe'
p1270
sS'20140424_07'
p1271
S'0efd2316-feb9-461c-b102-045aef8e22fe'
p1272
sS'20140424_06'
p1273
g1272
sS'20140424_09'
p1274
S'0efd2316-feb9-461c-b102-045aef8e22fe'
p1275
sS'20140507_08'
p1276
S'0efd2316-feb9-461c-b102-045aef8e22fe'
p1277
sS'20140516_13'
p1278
S'9482e992-9491-468f-89b0-e9e293406776'
p1279
sS'20140424_11'
p1280
S'0efd2316-feb9-461c-b102-045aef8e22fe'
p1281
sS'20140429_10'
p1282
S'0efd2316-feb9-461c-b102-045aef8e22fe'
p1283
sS'20140429_13'
p1284
S'0efd2316-feb9-461c-b102-045aef8e22fe'
p1285
sS'20140516_10'
p1286
g1239
sS'20140523_09'
p1287
g1261
sS'20140523_08'
p1288
S'324f3626-d4c7-4622-bf82-3314cb546cfc'
p1289
sS'20140507_07'
p1290
S'0efd2316-feb9-461c-b102-045aef8e22fe'
p1291
sS'20140507_06'
p1292
g1291
sS'20140507_09'
p1293
g1257
sS'20140424_08'
p1294
S'0efd2316-feb9-461c-b102-045aef8e22fe'
p1295
sS'20140516_12'
p1296
g1279
sS'20140424_10'
p1297
g1281
sS'20140523_07'
p1298
S'324f3626-d4c7-4622-bf82-3314cb546cfc'
p1299
sS'20140523_06'
p1300
g1299
ssS'ba289166-d8fb-48a6-8902-9a3603a7df32'
p1301
(dp1302
S'20140326_11'
p1303
S'fee8a191-c3ca-42fd-b027-65cf73b2bf8c'
p1304
sS'20140414_08'
p1305
S'b851ca6c-8885-44a4-96b4-5c93d2975c9a'
p1306
sS'20140325_13'
p1307
S'3da914c6-ab24-435c-aa9f-8facdfc1b5f7'
p1308
sS'20140512_12'
p1309
S'fee8a191-c3ca-42fd-b027-65cf73b2bf8c'
p1310
sS'20140325_14'
p1311
S'3da914c6-ab24-435c-aa9f-8facdfc1b5f7'
p1312
sS'20140326_08'
p1313
S'fee8a191-c3ca-42fd-b027-65cf73b2bf8c'
p1314
sS'20140512_13'
p1315
g1310
sS'20140414_06'
p1316
S'b851ca6c-8885-44a4-96b4-5c93d2975c9a'
p1317
sS'20140414_07'
p1318
g1317
sS'20140519_10'
p1319
S'fee8a191-c3ca-42fd-b027-65cf73b2bf8c'
p1320
sS'20140512_07'
p1321
S'fee8a191-c3ca-42fd-b027-65cf73b2bf8c'
p1322
sS'20140512_06'
p1323
g1322
sS'20140414_09'
p1324
g1306
sS'20140519_09'
p1325
S'fee8a191-c3ca-42fd-b027-65cf73b2bf8c'
p1326
sS'20140512_09'
p1327
S'fee8a191-c3ca-42fd-b027-65cf73b2bf8c'
p1328
sS'20140512_08'
p1329
S'fee8a191-c3ca-42fd-b027-65cf73b2bf8c'
p1330
sS'20140317_11'
p1331
S'fee8a191-c3ca-42fd-b027-65cf73b2bf8c'
p1332
sS'20140317_10'
p1333
g1332
sS'20140317_13'
p1334
S'fee8a191-c3ca-42fd-b027-65cf73b2bf8c'
p1335
sS'20140325_10'
p1336
S'3da914c6-ab24-435c-aa9f-8facdfc1b5f7'
p1337
sS'20140317_15'
p1338
g1335
sS'20140317_14'
p1339
g1335
sS'20140327_07'
p1340
S'b851ca6c-8885-44a4-96b4-5c93d2975c9a'
p1341
sS'20140407_10'
p1342
S'b851ca6c-8885-44a4-96b4-5c93d2975c9a'
p1343
sS'20140327_09'
p1344
S'b851ca6c-8885-44a4-96b4-5c93d2975c9a'
p1345
sS'20140320_16'
p1346
S'0efd2316-feb9-461c-b102-045aef8e22fe'
p1347
sS'20140320_15'
p1348
g1347
sS'20140320_14'
p1349
g1347
sS'20140320_13'
p1350
g1347
sS'20140320_12'
p1351
g1347
sS'20140320_11'
p1352
S'0efd2316-feb9-461c-b102-045aef8e22fe'
p1353
sS'20140320_10'
p1354
g1353
sS'20140407_06'
p1355
S'b851ca6c-8885-44a4-96b4-5c93d2975c9a'
p1356
sS'20140407_07'
p1357
g1356
sS'20140331_09'
p1358
S'fee8a191-c3ca-42fd-b027-65cf73b2bf8c'
p1359
sS'20140326_09'
p1360
S'fee8a191-c3ca-42fd-b027-65cf73b2bf8c'
p1361
sS'20140407_08'
p1362
S'b851ca6c-8885-44a4-96b4-5c93d2975c9a'
p1363
sS'20140407_09'
p1364
g1363
sS'20140325_11'
p1365
g1337
sS'20140331_11'
p1366
S'fee8a191-c3ca-42fd-b027-65cf73b2bf8c'
p1367
sS'20140331_10'
p1368
S'fee8a191-c3ca-42fd-b027-65cf73b2bf8c'
p1369
sS'20140331_13'
p1370
S'fee8a191-c3ca-42fd-b027-65cf73b2bf8c'
p1371
sS'20140331_12'
p1372
g1367
sS'20140331_08'
p1373
S'fee8a191-c3ca-42fd-b027-65cf73b2bf8c'
p1374
sS'20140414_14'
p1375
S'b851ca6c-8885-44a4-96b4-5c93d2975c9a'
p1376
sS'20140317_12'
p1377
g1332
sS'20140414_11'
p1378
S'b851ca6c-8885-44a4-96b4-5c93d2975c9a'
p1379
sS'20140414_10'
p1380
g1306
sS'20140414_13'
p1381
g1376
sS'20140414_12'
p1382
g1376
sS'20140519_08'
p1383
g1326
sS'20140326_12'
p1384
g1304
sS'20140519_11'
p1385
S'fee8a191-c3ca-42fd-b027-65cf73b2bf8c'
p1386
sS'20140519_07'
p1387
S'fee8a191-c3ca-42fd-b027-65cf73b2bf8c'
p1388
sS'20140325_09'
p1389
S'3da914c6-ab24-435c-aa9f-8facdfc1b5f7'
p1390
sS'20140325_08'
p1391
S'3da914c6-ab24-435c-aa9f-8facdfc1b5f7'
p1392
sS'20140519_06'
p1393
g1388
sS'20140317_17'
p1394
g1335
sS'20140327_10'
p1395
g1345
sS'20140327_11'
p1396
S'b851ca6c-8885-44a4-96b4-5c93d2975c9a'
p1397
sS'20140326_07'
p1398
g1314
sS'20140326_10'
p1399
g1361
sS'20140326_13'
p1400
S'fee8a191-c3ca-42fd-b027-65cf73b2bf8c'
p1401
sS'20140317_16'
p1402
g1335
sS'20140325_07'
p1403
g1392
sS'20140326_14'
p1404
S'fee8a191-c3ca-42fd-b027-65cf73b2bf8c'
p1405
sS'20140331_07'
p1406
g1374
sS'20140407_11'
p1407
S'b851ca6c-8885-44a4-96b4-5c93d2975c9a'
p1408
sS'20140320_17'
p1409
g1347
sS'20140407_13'
p1410
S'b851ca6c-8885-44a4-96b4-5c93d2975c9a'
p1411
sS'20140407_12'
p1412
S'b851ca6c-8885-44a4-96b4-5c93d2975c9a'
p1413
sS'20140407_14'
p1414
S'b851ca6c-8885-44a4-96b4-5c93d2975c9a'
p1415
sS'20140327_08'
p1416
g1341
sS'20140512_10'
p1417
g1328
sS'20140331_06'
p1418
S'fee8a191-c3ca-42fd-b027-65cf73b2bf8c'
p1419
sS'20140325_12'
p1420
g1308
sS'20140512_11'
p1421
g1328
ssS'02179afe-db35-49a2-861f-0c7f30862b0a'
p1422
(dp1423
S'20140506_11'
p1424
S'0efd2316-feb9-461c-b102-045aef8e22fe'
p1425
sS'20140506_08'
p1426
S'0efd2316-feb9-461c-b102-045aef8e22fe'
p1427
sS'20140506_06'
p1428
g1427
sS'20140506_07'
p1429
g1427
sS'20140506_13'
p1430
g1425
sS'20140506_12'
p1431
g1425
ssS'76376323-0d72-4c74-b37c-527e7f25c8af'
p1432
(dp1433
S'20140403_09'
p1434
S'db22b367-f7ba-4070-b582-dd8bbacce9fb'
p1435
sS'20140403_11'
p1436
S'db22b367-f7ba-4070-b582-dd8bbacce9fb'
p1437
sS'20140509_10'
p1438
S'c0d88b90-e1b4-4bf4-b43d-bf4091346b2c'
p1439
sS'20140509_11'
p1440
g1439
sS'20140401_13'
p1441
S'324f3626-d4c7-4622-bf82-3314cb546cfc'
p1442
sS'20140401_12'
p1443
g1442
sS'20140401_11'
p1444
S'324f3626-d4c7-4622-bf82-3314cb546cfc'
p1445
sS'20140401_10'
p1446
g1445
sS'20140403_06'
p1447
S'db22b367-f7ba-4070-b582-dd8bbacce9fb'
p1448
sS'20140403_07'
p1449
g1448
sS'20140303_10'
p1450
S'db22b367-f7ba-4070-b582-dd8bbacce9fb'
p1451
sS'20140303_11'
p1452
S'db22b367-f7ba-4070-b582-dd8bbacce9fb'
p1453
sS'20140303_12'
p1454
S'db22b367-f7ba-4070-b582-dd8bbacce9fb'
p1455
sS'20140303_13'
p1456
S'db22b367-f7ba-4070-b582-dd8bbacce9fb'
p1457
sS'20140303_14'
p1458
g1457
sS'20140516_09'
p1459
S'0efd2316-feb9-461c-b102-045aef8e22fe'
p1460
sS'20140516_08'
p1461
g1460
sS'20140516_07'
p1462
S'0efd2316-feb9-461c-b102-045aef8e22fe'
p1463
sS'20140516_06'
p1464
g1463
sS'20140509_09'
p1465
g1439
sS'20140509_08'
p1466
S'c0d88b90-e1b4-4bf4-b43d-bf4091346b2c'
p1467
sS'20140509_07'
p1468
S'c0d88b90-e1b4-4bf4-b43d-bf4091346b2c'
p1469
sS'20140509_06'
p1470
S'c0d88b90-e1b4-4bf4-b43d-bf4091346b2c'
p1471
sS'20140401_06'
p1472
S'324f3626-d4c7-4622-bf82-3314cb546cfc'
p1473
sS'20140401_07'
p1474
g1473
sS'20140303_09'
p1475
S'db22b367-f7ba-4070-b582-dd8bbacce9fb'
p1476
sS'20140303_08'
p1477
S'db22b367-f7ba-4070-b582-dd8bbacce9fb'
p1478
sS'20140303_07'
p1479
S'db22b367-f7ba-4070-b582-dd8bbacce9fb'
p1480
sS'20140403_10'
p1481
g1437
sS'20140403_13'
p1482
S'db22b367-f7ba-4070-b582-dd8bbacce9fb'
p1483
sS'20140403_12'
p1484
g1483
sS'20140516_10'
p1485
g1460
sS'20140516_11'
p1486
S'0efd2316-feb9-461c-b102-045aef8e22fe'
p1487
sS'20140516_12'
p1488
g1487
sS'20140516_13'
p1489
S'0efd2316-feb9-461c-b102-045aef8e22fe'
p1490
sS'20140403_08'
p1491
g1448
ssS'6f1176ff-7a6a-49ac-b0ef-cd676b220aa9'
p1492
(dp1493
S'20140328_07'
p1494
S'0efd2316-feb9-461c-b102-045aef8e22fe'
p1495
sS'20140328_08'
p1496
S'0efd2316-feb9-461c-b102-045aef8e22fe'
p1497
sS'20140328_09'
p1498
g1497
sS'20140417_07'
p1499
S'db22b367-f7ba-4070-b582-dd8bbacce9fb'
p1500
sS'20140417_06'
p1501
S'db22b367-f7ba-4070-b582-dd8bbacce9fb'
p1502
sS'20140422_10'
p1503
S'47d0b7f6-6413-47ba-ab4f-76520ce148e2'
p1504
sS'20140422_11'
p1505
S'47d0b7f6-6413-47ba-ab4f-76520ce148e2'
p1506
sS'20140422_12'
p1507
S'47d0b7f6-6413-47ba-ab4f-76520ce148e2'
p1508
sS'20140422_13'
p1509
g1508
sS'20140417_09'
p1510
S'db22b367-f7ba-4070-b582-dd8bbacce9fb'
p1511
sS'20140417_08'
p1512
g1511
sS'20140415_12'
p1513
S'0efd2316-feb9-461c-b102-045aef8e22fe'
p1514
sS'20140415_13'
p1515
g1514
sS'20140415_10'
p1516
S'0efd2316-feb9-461c-b102-045aef8e22fe'
p1517
sS'20140415_11'
p1518
S'0efd2316-feb9-461c-b102-045aef8e22fe'
p1519
sS'20140328_14'
p1520
S'0efd2316-feb9-461c-b102-045aef8e22fe'
p1521
sS'20140328_13'
p1522
S'0efd2316-feb9-461c-b102-045aef8e22fe'
p1523
sS'20140328_12'
p1524
S'0efd2316-feb9-461c-b102-045aef8e22fe'
p1525
sS'20140328_11'
p1526
S'0efd2316-feb9-461c-b102-045aef8e22fe'
p1527
sS'20140328_10'
p1528
S'0efd2316-feb9-461c-b102-045aef8e22fe'
p1529
sS'20140422_07'
p1530
g1504
sS'20140422_06'
p1531
S'47d0b7f6-6413-47ba-ab4f-76520ce148e2'
p1532
sS'20140417_11'
p1533
S'db22b367-f7ba-4070-b582-dd8bbacce9fb'
p1534
sS'20140417_12'
p1535
S'db22b367-f7ba-4070-b582-dd8bbacce9fb'
p1536
sS'20140417_13'
p1537
g1536
sS'20140422_09'
p1538
g1504
sS'20140422_08'
p1539
g1504
sS'20140415_09'
p1540
S'0efd2316-feb9-461c-b102-045aef8e22fe'
p1541
sS'20140415_08'
p1542
S'0efd2316-feb9-461c-b102-045aef8e22fe'
p1543
sS'20140415_07'
p1544
S'0efd2316-feb9-461c-b102-045aef8e22fe'
p1545
sS'20140415_06'
p1546
S'0efd2316-feb9-461c-b102-045aef8e22fe'
p1547
ssS'ee829187-7b75-43be-957e-c2fc9a9fddcf'
p1548
(dp1549
S'20140310_14'
p1550
S'c0d88b90-e1b4-4bf4-b43d-bf4091346b2c'
p1551
sS'20140519_09'
p1552
S'b851ca6c-8885-44a4-96b4-5c93d2975c9a'
p1553
sS'20140310_09'
p1554
S'c0d88b90-e1b4-4bf4-b43d-bf4091346b2c'
p1555
sS'20140303_14'
p1556
S'c0d88b90-e1b4-4bf4-b43d-bf4091346b2c'
p1557
sS'20140328_08'
p1558
S'b851ca6c-8885-44a4-96b4-5c93d2975c9a'
p1559
sS'20140328_09'
p1560
g1559
sS'20140512_07'
p1561
S'3da914c6-ab24-435c-aa9f-8facdfc1b5f7'
p1562
sS'20140512_09'
p1563
g1562
sS'20140512_08'
p1564
g1562
sS'20140314_10'
p1565
S'9482e992-9491-468f-89b0-e9e293406776'
p1566
sS'20140314_11'
p1567
S'9482e992-9491-468f-89b0-e9e293406776'
p1568
sS'20140314_12'
p1569
S'9482e992-9491-468f-89b0-e9e293406776'
p1570
sS'20140314_13'
p1571
g1570
sS'20140314_14'
p1572
S'9482e992-9491-468f-89b0-e9e293406776'
p1573
sS'20140310_08'
p1574
g1555
sS'20140303_10'
p1575
S'c0d88b90-e1b4-4bf4-b43d-bf4091346b2c'
p1576
sS'20140303_11'
p1577
S'c0d88b90-e1b4-4bf4-b43d-bf4091346b2c'
p1578
sS'20140303_12'
p1579
g1578
sS'20140303_13'
p1580
g1557
sS'20140519_11'
p1581
S'b851ca6c-8885-44a4-96b4-5c93d2975c9a'
p1582
sS'20140519_10'
p1583
S'b851ca6c-8885-44a4-96b4-5c93d2975c9a'
p1584
sS'20140519_13'
p1585
S'b851ca6c-8885-44a4-96b4-5c93d2975c9a'
p1586
sS'20140519_12'
p1587
g1582
sS'20140411_07'
p1588
S'b851ca6c-8885-44a4-96b4-5c93d2975c9a'
p1589
sS'20140411_06'
p1590
S'b851ca6c-8885-44a4-96b4-5c93d2975c9a'
p1591
sS'20140425_11'
p1592
S'0efd2316-feb9-461c-b102-045aef8e22fe'
p1593
sS'20140425_10'
p1594
S'0efd2316-feb9-461c-b102-045aef8e22fe'
p1595
sS'20140425_13'
p1596
S'0efd2316-feb9-461c-b102-045aef8e22fe'
p1597
sS'20140425_12'
p1598
g1593
sS'20140411_10'
p1599
S'b851ca6c-8885-44a4-96b4-5c93d2975c9a'
p1600
sS'20140411_09'
p1601
g1600
sS'20140328_14'
p1602
S'b851ca6c-8885-44a4-96b4-5c93d2975c9a'
p1603
sS'20140328_13'
p1604
g1603
sS'20140328_12'
p1605
g1603
sS'20140328_11'
p1606
S'b851ca6c-8885-44a4-96b4-5c93d2975c9a'
p1607
sS'20140328_10'
p1608
g1607
sS'20140411_11'
p1609
S'b851ca6c-8885-44a4-96b4-5c93d2975c9a'
p1610
sS'20140310_07'
p1611
g1555
sS'20140411_08'
p1612
S'b851ca6c-8885-44a4-96b4-5c93d2975c9a'
p1613
sS'20140512_10'
p1614
g1562
sS'20140512_11'
p1615
g1562
sS'20140512_12'
p1616
S'3da914c6-ab24-435c-aa9f-8facdfc1b5f7'
p1617
sS'20140512_13'
p1618
g1617
sS'20140519_06'
p1619
g1553
sS'20140303_09'
p1620
S'c0d88b90-e1b4-4bf4-b43d-bf4091346b2c'
p1621
sS'20140303_08'
p1622
S'c0d88b90-e1b4-4bf4-b43d-bf4091346b2c'
p1623
sS'20140314_07'
p1624
S'9482e992-9491-468f-89b0-e9e293406776'
p1625
sS'20140519_07'
p1626
g1553
sS'20140314_09'
p1627
g1566
sS'20140314_08'
p1628
g1625
sS'20140303_07'
p1629
g1623
sS'20140310_11'
p1630
S'c0d88b90-e1b4-4bf4-b43d-bf4091346b2c'
p1631
sS'20140411_12'
p1632
S'b851ca6c-8885-44a4-96b4-5c93d2975c9a'
p1633
sS'20140411_13'
p1634
S'b851ca6c-8885-44a4-96b4-5c93d2975c9a'
p1635
sS'20140425_08'
p1636
S'0efd2316-feb9-461c-b102-045aef8e22fe'
p1637
sS'20140425_09'
p1638
S'0efd2316-feb9-461c-b102-045aef8e22fe'
p1639
sS'20140425_06'
p1640
S'0efd2316-feb9-461c-b102-045aef8e22fe'
p1641
sS'20140425_07'
p1642
S'0efd2316-feb9-461c-b102-045aef8e22fe'
p1643
sS'20140310_10'
p1644
g1631
sS'20140519_08'
p1645
g1553
sS'20140310_12'
p1646
S'c0d88b90-e1b4-4bf4-b43d-bf4091346b2c'
p1647
sS'20140310_13'
p1648
S'c0d88b90-e1b4-4bf4-b43d-bf4091346b2c'
p1649
ssS'504b2652-bbfe-4f28-bc20-29da37aa6ed0'
p1650
(dp1651
S'20140304_15'
p1652
S'c0d88b90-e1b4-4bf4-b43d-bf4091346b2c'
p1653
sS'20140304_14'
p1654
g1653
sS'20140311_14'
p1655
S'324f3626-d4c7-4622-bf82-3314cb546cfc'
p1656
sS'20140311_13'
p1657
g1656
sS'20140311_12'
p1658
S'324f3626-d4c7-4622-bf82-3314cb546cfc'
p1659
sS'20140311_11'
p1660
S'324f3626-d4c7-4622-bf82-3314cb546cfc'
p1661
sS'20140311_10'
p1662
g1661
sS'20140305_09'
p1663
S'3da914c6-ab24-435c-aa9f-8facdfc1b5f7'
p1664
sS'20140305_08'
p1665
S'3da914c6-ab24-435c-aa9f-8facdfc1b5f7'
p1666
sS'20140506_06'
p1667
S'3da914c6-ab24-435c-aa9f-8facdfc1b5f7'
p1668
sS'20140305_07'
p1669
g1666
sS'20140304_10'
p1670
S'c0d88b90-e1b4-4bf4-b43d-bf4091346b2c'
p1671
sS'20140314_10'
p1672
S'3da914c6-ab24-435c-aa9f-8facdfc1b5f7'
p1673
sS'20140314_11'
p1674
g1673
sS'20140314_12'
p1675
S'3da914c6-ab24-435c-aa9f-8facdfc1b5f7'
p1676
sS'20140314_13'
p1677
g1676
sS'20140314_14'
p1678
g1676
sS'20140304_13'
p1679
g1653
sS'20140304_12'
p1680
g1653
sS'20140304_08'
p1681
g1671
sS'20140304_09'
p1682
g1671
sS'20140310_09'
p1683
S'3da914c6-ab24-435c-aa9f-8facdfc1b5f7'
p1684
sS'20140310_08'
p1685
S'3da914c6-ab24-435c-aa9f-8facdfc1b5f7'
p1686
sS'20140310_07'
p1687
g1686
sS'20140506_10'
p1688
S'3da914c6-ab24-435c-aa9f-8facdfc1b5f7'
p1689
sS'20140506_13'
p1690
S'3da914c6-ab24-435c-aa9f-8facdfc1b5f7'
p1691
sS'20140506_12'
p1692
g1691
sS'20140304_07'
p1693
S'c0d88b90-e1b4-4bf4-b43d-bf4091346b2c'
p1694
sS'20140311_07'
p1695
S'324f3626-d4c7-4622-bf82-3314cb546cfc'
p1696
sS'20140311_08'
p1697
S'324f3626-d4c7-4622-bf82-3314cb546cfc'
p1698
sS'20140311_09'
p1699
g1661
sS'20140305_12'
p1700
S'3da914c6-ab24-435c-aa9f-8facdfc1b5f7'
p1701
sS'20140305_13'
p1702
S'3da914c6-ab24-435c-aa9f-8facdfc1b5f7'
p1703
sS'20140305_10'
p1704
g1701
sS'20140305_11'
p1705
g1701
sS'20140305_14'
p1706
S'3da914c6-ab24-435c-aa9f-8facdfc1b5f7'
p1707
sS'20140506_07'
p1708
S'3da914c6-ab24-435c-aa9f-8facdfc1b5f7'
p1709
sS'20140314_07'
p1710
S'3da914c6-ab24-435c-aa9f-8facdfc1b5f7'
p1711
sS'20140314_09'
p1712
g1673
sS'20140314_08'
p1713
g1711
sS'20140506_08'
p1714
g1689
sS'20140506_09'
p1715
g1689
sS'20140310_14'
p1716
S'3da914c6-ab24-435c-aa9f-8facdfc1b5f7'
p1717
sS'20140310_15'
p1718
g1717
sS'20140310_10'
p1719
S'3da914c6-ab24-435c-aa9f-8facdfc1b5f7'
p1720
sS'20140310_11'
p1721
g1720
sS'20140310_12'
p1722
g1720
sS'20140310_13'
p1723
g1717
ssS'ba266c6e-9dc2-4718-92d6-5147121040ca'
p1724
(dp1725
S'20140321_14'
p1726
S'0efd2316-feb9-461c-b102-045aef8e22fe'
p1727
sS'20140321_15'
p1728
g1727
sS'20140321_16'
p1729
g1727
sS'20140321_17'
p1730
S'0efd2316-feb9-461c-b102-045aef8e22fe'
p1731
sS'20140321_10'
p1732
S'0efd2316-feb9-461c-b102-045aef8e22fe'
p1733
sS'20140321_11'
p1734
g1733
sS'20140321_12'
p1735
g1733
sS'20140321_13'
p1736
g1727
sS'20140319_13'
p1737
S'db22b367-f7ba-4070-b582-dd8bbacce9fb'
p1738
sS'20140325_10'
p1739
S'db22b367-f7ba-4070-b582-dd8bbacce9fb'
p1740
sS'20140319_12'
p1741
g1738
sS'20140408_14'
p1742
S'fee8a191-c3ca-42fd-b027-65cf73b2bf8c'
p1743
sS'20140408_10'
p1744
S'fee8a191-c3ca-42fd-b027-65cf73b2bf8c'
p1745
sS'20140319_11'
p1746
S'db22b367-f7ba-4070-b582-dd8bbacce9fb'
p1747
sS'20140408_12'
p1748
g1743
sS'20140408_13'
p1749
g1743
sS'20140319_16'
p1750
S'db22b367-f7ba-4070-b582-dd8bbacce9fb'
p1751
sS'20140319_10'
p1752
g1747
sS'20140415_12'
p1753
S'b851ca6c-8885-44a4-96b4-5c93d2975c9a'
p1754
sS'20140415_13'
p1755
S'b851ca6c-8885-44a4-96b4-5c93d2975c9a'
p1756
sS'20140415_10'
p1757
g1754
sS'20140415_11'
p1758
g1754
sS'20140429_06'
p1759
S'b851ca6c-8885-44a4-96b4-5c93d2975c9a'
p1760
sS'20140429_07'
p1761
S'b851ca6c-8885-44a4-96b4-5c93d2975c9a'
p1762
sS'20140327_07'
p1763
S'0efd2316-feb9-461c-b102-045aef8e22fe'
p1764
sS'20140327_09'
p1765
S'0efd2316-feb9-461c-b102-045aef8e22fe'
p1766
sS'20140327_08'
p1767
g1764
sS'20140320_15'
p1768
S'9482e992-9491-468f-89b0-e9e293406776'
p1769
sS'20140320_14'
p1770
S'9482e992-9491-468f-89b0-e9e293406776'
p1771
sS'20140320_13'
p1772
g1771
sS'20140320_12'
p1773
S'9482e992-9491-468f-89b0-e9e293406776'
p1774
sS'20140320_11'
p1775
S'9482e992-9491-468f-89b0-e9e293406776'
p1776
sS'20140320_10'
p1777
g1776
sS'20140429_09'
p1778
S'b851ca6c-8885-44a4-96b4-5c93d2975c9a'
p1779
sS'20140319_14'
p1780
g1738
sS'20140325_14'
p1781
S'db22b367-f7ba-4070-b582-dd8bbacce9fb'
p1782
sS'20140325_12'
p1783
S'db22b367-f7ba-4070-b582-dd8bbacce9fb'
p1784
sS'20140425_11'
p1785
S'b851ca6c-8885-44a4-96b4-5c93d2975c9a'
p1786
sS'20140425_10'
p1787
S'b851ca6c-8885-44a4-96b4-5c93d2975c9a'
p1788
sS'20140425_13'
p1789
S'b851ca6c-8885-44a4-96b4-5c93d2975c9a'
p1790
sS'20140425_12'
p1791
S'b851ca6c-8885-44a4-96b4-5c93d2975c9a'
p1792
sS'20140325_11'
p1793
g1740
sS'20140325_07'
p1794
S'db22b367-f7ba-4070-b582-dd8bbacce9fb'
p1795
sS'20140425_09'
p1796
g1788
sS'20140325_13'
p1797
g1784
sS'20140325_09'
p1798
S'db22b367-f7ba-4070-b582-dd8bbacce9fb'
p1799
sS'20140408_07'
p1800
S'fee8a191-c3ca-42fd-b027-65cf73b2bf8c'
p1801
sS'20140408_06'
p1802
S'fee8a191-c3ca-42fd-b027-65cf73b2bf8c'
p1803
sS'20140415_09'
p1804
S'b851ca6c-8885-44a4-96b4-5c93d2975c9a'
p1805
sS'20140408_09'
p1806
S'fee8a191-c3ca-42fd-b027-65cf73b2bf8c'
p1807
sS'20140415_08'
p1808
S'b851ca6c-8885-44a4-96b4-5c93d2975c9a'
p1809
sS'20140327_14'
p1810
S'0efd2316-feb9-461c-b102-045aef8e22fe'
p1811
sS'20140325_08'
p1812
g1795
sS'20140327_12'
p1813
S'0efd2316-feb9-461c-b102-045aef8e22fe'
p1814
sS'20140327_13'
p1815
g1814
sS'20140327_10'
p1816
g1766
sS'20140327_11'
p1817
g1766
sS'20140319_17'
p1818
S'db22b367-f7ba-4070-b582-dd8bbacce9fb'
p1819
sS'20140429_14'
p1820
S'b851ca6c-8885-44a4-96b4-5c93d2975c9a'
p1821
sS'20140415_07'
p1822
S'b851ca6c-8885-44a4-96b4-5c93d2975c9a'
p1823
sS'20140415_06'
p1824
S'b851ca6c-8885-44a4-96b4-5c93d2975c9a'
p1825
sS'20140429_11'
p1826
S'b851ca6c-8885-44a4-96b4-5c93d2975c9a'
p1827
sS'20140429_10'
p1828
S'b851ca6c-8885-44a4-96b4-5c93d2975c9a'
p1829
sS'20140429_13'
p1830
S'b851ca6c-8885-44a4-96b4-5c93d2975c9a'
p1831
sS'20140429_12'
p1832
g1827
sS'20140320_17'
p1833
S'9482e992-9491-468f-89b0-e9e293406776'
p1834
sS'20140319_15'
p1835
g1738
sS'20140425_08'
p1836
S'b851ca6c-8885-44a4-96b4-5c93d2975c9a'
p1837
sS'20140320_16'
p1838
g1769
sS'20140425_06'
p1839
S'b851ca6c-8885-44a4-96b4-5c93d2975c9a'
p1840
sS'20140425_07'
p1841
S'b851ca6c-8885-44a4-96b4-5c93d2975c9a'
p1842
sS'20140408_08'
p1843
S'fee8a191-c3ca-42fd-b027-65cf73b2bf8c'
p1844
sS'20140429_08'
p1845
g1779
sS'20140408_11'
p1846
S'fee8a191-c3ca-42fd-b027-65cf73b2bf8c'
p1847
ssS'3c58876e-1b9c-4337-aaaa-999e30aba9af'
p1848
(dp1849
S'20140318_07'
p1850
S'3da914c6-ab24-435c-aa9f-8facdfc1b5f7'
p1851
sS'20140318_06'
p1852
S'3da914c6-ab24-435c-aa9f-8facdfc1b5f7'
p1853
sS'20140318_05'
p1854
g1853
sS'20140401_11'
p1855
S'b851ca6c-8885-44a4-96b4-5c93d2975c9a'
p1856
sS'20140325_07'
p1857
S'9482e992-9491-468f-89b0-e9e293406776'
p1858
sS'20140401_10'
p1859
g1856
sS'20140318_09'
p1860
S'3da914c6-ab24-435c-aa9f-8facdfc1b5f7'
p1861
sS'20140318_08'
p1862
g1851
sS'20140408_14'
p1863
S'324f3626-d4c7-4622-bf82-3314cb546cfc'
p1864
sS'20140417_06'
p1865
S'3da914c6-ab24-435c-aa9f-8facdfc1b5f7'
p1866
sS'20140408_10'
p1867
S'324f3626-d4c7-4622-bf82-3314cb546cfc'
p1868
sS'20140408_11'
p1869
g1868
sS'20140408_12'
p1870
g1868
sS'20140408_13'
p1871
g1864
sS'20140402_12'
p1872
S'b851ca6c-8885-44a4-96b4-5c93d2975c9a'
p1873
sS'20140402_13'
p1874
S'b851ca6c-8885-44a4-96b4-5c93d2975c9a'
p1875
sS'20140402_10'
p1876
S'b851ca6c-8885-44a4-96b4-5c93d2975c9a'
p1877
sS'20140402_11'
p1878
g1873
sS'20140417_09'
p1879
S'3da914c6-ab24-435c-aa9f-8facdfc1b5f7'
p1880
sS'20140417_08'
p1881
g1880
sS'20140303_10'
p1882
S'3da914c6-ab24-435c-aa9f-8facdfc1b5f7'
p1883
sS'20140303_11'
p1884
g1883
sS'20140303_12'
p1885
S'3da914c6-ab24-435c-aa9f-8facdfc1b5f7'
p1886
sS'20140303_13'
p1887
S'3da914c6-ab24-435c-aa9f-8facdfc1b5f7'
p1888
sS'20140303_14'
p1889
S'3da914c6-ab24-435c-aa9f-8facdfc1b5f7'
p1890
sS'20140320_12'
p1891
S'3da914c6-ab24-435c-aa9f-8facdfc1b5f7'
p1892
sS'20140320_11'
p1893
S'3da914c6-ab24-435c-aa9f-8facdfc1b5f7'
p1894
sS'20140320_10'
p1895
g1894
sS'20140318_10'
p1896
g1861
sS'20140318_11'
p1897
g1861
sS'20140318_12'
p1898
g1861
sS'20140402_06'
p1899
S'b851ca6c-8885-44a4-96b4-5c93d2975c9a'
p1900
sS'20140325_09'
p1901
S'9482e992-9491-468f-89b0-e9e293406776'
p1902
sS'20140408_07'
p1903
S'324f3626-d4c7-4622-bf82-3314cb546cfc'
p1904
sS'20140408_06'
p1905
g1904
sS'20140401_06'
p1906
S'b851ca6c-8885-44a4-96b4-5c93d2975c9a'
p1907
sS'20140325_08'
p1908
g1858
sS'20140417_10'
p1909
g1880
sS'20140417_11'
p1910
S'3da914c6-ab24-435c-aa9f-8facdfc1b5f7'
p1911
sS'20140417_12'
p1912
S'3da914c6-ab24-435c-aa9f-8facdfc1b5f7'
p1913
sS'20140417_13'
p1914
S'3da914c6-ab24-435c-aa9f-8facdfc1b5f7'
p1915
sS'20140402_09'
p1916
g1877
sS'20140401_08'
p1917
g1907
sS'20140401_09'
p1918
S'b851ca6c-8885-44a4-96b4-5c93d2975c9a'
p1919
sS'20140408_09'
p1920
S'324f3626-d4c7-4622-bf82-3314cb546cfc'
p1921
sS'20140408_08'
p1922
g1921
sS'20140417_07'
p1923
g1880
sS'20140303_09'
p1924
S'3da914c6-ab24-435c-aa9f-8facdfc1b5f7'
p1925
sS'20140303_08'
p1926
g1925
sS'20140320_08'
p1927
S'3da914c6-ab24-435c-aa9f-8facdfc1b5f7'
p1928
sS'20140320_09'
p1929
g1894
sS'20140320_05'
p1930
g1928
sS'20140320_06'
p1931
g1928
sS'20140320_07'
p1932
g1928
sS'20140303_07'
p1933
g1925
sS'20140402_08'
p1934
g1877
sS'20140325_10'
p1935
g1902
sS'20140401_07'
p1936
g1907
sS'20140325_11'
p1937
g1902
sS'20140401_13'
p1938
S'b851ca6c-8885-44a4-96b4-5c93d2975c9a'
p1939
sS'20140402_07'
p1940
g1877
sS'20140325_12'
p1941
g1902
sS'20140401_12'
p1942
g1939
ssS'935cfe34-f260-4ec4-a777-e7703f7eec81'
p1943
(dp1944
S'20140414_11'
p1945
S'db22b367-f7ba-4070-b582-dd8bbacce9fb'
p1946
sS'20140414_08'
p1947
S'db22b367-f7ba-4070-b582-dd8bbacce9fb'
p1948
sS'20140414_09'
p1949
g1948
sS'20140423_10'
p1950
S'c0d88b90-e1b4-4bf4-b43d-bf4091346b2c'
p1951
sS'20140425_12'
p1952
S'47d0b7f6-6413-47ba-ab4f-76520ce148e2'
p1953
sS'20140414_12'
p1954
S'db22b367-f7ba-4070-b582-dd8bbacce9fb'
p1955
sS'20140414_06'
p1956
S'db22b367-f7ba-4070-b582-dd8bbacce9fb'
p1957
sS'20140423_14'
p1958
S'c0d88b90-e1b4-4bf4-b43d-bf4091346b2c'
p1959
sS'20140414_21'
p1960
S'db22b367-f7ba-4070-b582-dd8bbacce9fb'
p1961
sS'20140414_23'
p1962
S'db22b367-f7ba-4070-b582-dd8bbacce9fb'
p1963
sS'20140423_15'
p1964
g1959
sS'20140425_11'
p1965
g1953
sS'20140410_08'
p1966
S'0efd2316-feb9-461c-b102-045aef8e22fe'
p1967
sS'20140410_09'
p1968
g1967
sS'20140410_06'
p1969
S'0efd2316-feb9-461c-b102-045aef8e22fe'
p1970
sS'20140410_07'
p1971
g1970
sS'20140425_13'
p1972
g1953
sS'20140409_14'
p1973
S'3da914c6-ab24-435c-aa9f-8facdfc1b5f7'
p1974
sS'20140409_13'
p1975
g1974
sS'20140409_12'
p1976
g1974
sS'20140409_11'
p1977
g1974
sS'20140409_10'
p1978
S'3da914c6-ab24-435c-aa9f-8facdfc1b5f7'
p1979
sS'20140423_12'
p1980
g1959
sS'20140423_08'
p1981
S'c0d88b90-e1b4-4bf4-b43d-bf4091346b2c'
p1982
sS'20140414_07'
p1983
S'db22b367-f7ba-4070-b582-dd8bbacce9fb'
p1984
sS'20140414_15'
p1985
S'db22b367-f7ba-4070-b582-dd8bbacce9fb'
p1986
sS'20140410_11'
p1987
S'0efd2316-feb9-461c-b102-045aef8e22fe'
p1988
sS'20140414_16'
p1989
g1986
sS'20140423_07'
p1990
g1982
sS'20140414_10'
p1991
g1948
sS'20140414_13'
p1992
g1955
sS'20140410_10'
p1993
g1988
sS'20140425_10'
p1994
S'47d0b7f6-6413-47ba-ab4f-76520ce148e2'
p1995
sS'20140414_19'
p1996
S'db22b367-f7ba-4070-b582-dd8bbacce9fb'
p1997
sS'20140410_13'
p1998
S'0efd2316-feb9-461c-b102-045aef8e22fe'
p1999
sS'20140410_12'
p2000
S'0efd2316-feb9-461c-b102-045aef8e22fe'
p2001
sS'20140423_11'
p2002
g1959
sS'20140423_13'
p2003
g1959
sS'20140423_09'
p2004
g1951
sS'20140425_14'
p2005
g1953
sS'20140409_08'
p2006
S'3da914c6-ab24-435c-aa9f-8facdfc1b5f7'
p2007
sS'20140409_09'
p2008
S'3da914c6-ab24-435c-aa9f-8facdfc1b5f7'
p2009
sS'20140425_08'
p2010
S'47d0b7f6-6413-47ba-ab4f-76520ce148e2'
p2011
sS'20140425_09'
p2012
g1995
sS'20140425_06'
p2013
g2011
sS'20140425_07'
p2014
g2011
sS'20140409_06'
p2015
S'3da914c6-ab24-435c-aa9f-8facdfc1b5f7'
p2016
sS'20140409_07'
p2017
g2007
sS'20140410_14'
p2018
g1999
ssS'3921b1f3-76e3-4598-8e05-2cdabb337187'
p2019
(dp2020
S'20140307_14'
p2021
S'47d0b7f6-6413-47ba-ab4f-76520ce148e2'
p2022
sS'20140307_10'
p2023
S'47d0b7f6-6413-47ba-ab4f-76520ce148e2'
p2024
sS'20140307_11'
p2025
g2024
sS'20140307_12'
p2026
S'47d0b7f6-6413-47ba-ab4f-76520ce148e2'
p2027
sS'20140307_13'
p2028
g2022
sS'20140303_07'
p2029
S'0efd2316-feb9-461c-b102-045aef8e22fe'
p2030
sS'20140305_09'
p2031
S'0efd2316-feb9-461c-b102-045aef8e22fe'
p2032
sS'20140305_08'
p2033
S'0efd2316-feb9-461c-b102-045aef8e22fe'
p2034
sS'20140428_12'
p2035
S'0efd2316-feb9-461c-b102-045aef8e22fe'
p2036
sS'20140428_13'
p2037
g2036
sS'20140305_07'
p2038
g2034
sS'20140428_11'
p2039
g2036
sS'20140428_10'
p2040
S'0efd2316-feb9-461c-b102-045aef8e22fe'
p2041
sS'20140519_11'
p2042
S'c0d88b90-e1b4-4bf4-b43d-bf4091346b2c'
p2043
sS'20140303_10'
p2044
S'0efd2316-feb9-461c-b102-045aef8e22fe'
p2045
sS'20140303_11'
p2046
S'0efd2316-feb9-461c-b102-045aef8e22fe'
p2047
sS'20140303_12'
p2048
S'0efd2316-feb9-461c-b102-045aef8e22fe'
p2049
sS'20140303_13'
p2050
S'0efd2316-feb9-461c-b102-045aef8e22fe'
p2051
sS'20140303_14'
p2052
g2051
sS'20140519_10'
p2053
S'c0d88b90-e1b4-4bf4-b43d-bf4091346b2c'
p2054
sS'20140519_13'
p2055
g2043
sS'20140519_12'
p2056
g2043
sS'20140414_13'
p2057
S'fee8a191-c3ca-42fd-b027-65cf73b2bf8c'
p2058
sS'20140307_07'
p2059
S'47d0b7f6-6413-47ba-ab4f-76520ce148e2'
p2060
sS'20140428_07'
p2061
S'0efd2316-feb9-461c-b102-045aef8e22fe'
p2062
sS'20140307_09'
p2063
S'47d0b7f6-6413-47ba-ab4f-76520ce148e2'
p2064
sS'20140307_08'
p2065
g2060
sS'20140305_12'
p2066
S'0efd2316-feb9-461c-b102-045aef8e22fe'
p2067
sS'20140305_13'
p2068
S'0efd2316-feb9-461c-b102-045aef8e22fe'
p2069
sS'20140305_10'
p2070
S'0efd2316-feb9-461c-b102-045aef8e22fe'
p2071
sS'20140305_11'
p2072
g2071
sS'20140414_11'
p2073
S'fee8a191-c3ca-42fd-b027-65cf73b2bf8c'
p2074
sS'20140305_14'
p2075
g2069
sS'20140414_12'
p2076
g2058
sS'20140303_09'
p2077
g2030
sS'20140303_08'
p2078
g2030
sS'20140519_06'
p2079
S'c0d88b90-e1b4-4bf4-b43d-bf4091346b2c'
p2080
sS'20140519_07'
p2081
g2080
sS'20140519_08'
p2082
S'c0d88b90-e1b4-4bf4-b43d-bf4091346b2c'
p2083
sS'20140519_09'
p2084
g2054
sS'20140428_09'
p2085
g2041
sS'20140428_08'
p2086
g2062
sS'20140428_06'
p2087
g2062
ssS'7788a27e-37df-46ed-8af4-e796d44fd152'
p2088
(dp2089
S'20140312_07'
p2090
S'3da914c6-ab24-435c-aa9f-8facdfc1b5f7'
p2091
sS'20140312_09'
p2092
g2091
sS'20140312_08'
p2093
g2091
sS'20140314_10'
p2094
S'db22b367-f7ba-4070-b582-dd8bbacce9fb'
p2095
sS'20140314_11'
p2096
S'db22b367-f7ba-4070-b582-dd8bbacce9fb'
p2097
sS'20140314_12'
p2098
S'db22b367-f7ba-4070-b582-dd8bbacce9fb'
p2099
sS'20140314_13'
p2100
g2099
sS'20140403_06'
p2101
S'9482e992-9491-468f-89b0-e9e293406776'
p2102
sS'20140403_07'
p2103
g2102
sS'20140403_08'
p2104
g2102
sS'20140403_09'
p2105
S'9482e992-9491-468f-89b0-e9e293406776'
p2106
sS'20140416_08'
p2107
S'db22b367-f7ba-4070-b582-dd8bbacce9fb'
p2108
sS'20140416_09'
p2109
S'db22b367-f7ba-4070-b582-dd8bbacce9fb'
p2110
sS'20140514_07'
p2111
S'324f3626-d4c7-4622-bf82-3314cb546cfc'
p2112
sS'20140514_09'
p2113
S'324f3626-d4c7-4622-bf82-3314cb546cfc'
p2114
sS'20140409_08'
p2115
S'324f3626-d4c7-4622-bf82-3314cb546cfc'
p2116
sS'20140416_06'
p2117
S'db22b367-f7ba-4070-b582-dd8bbacce9fb'
p2118
sS'20140416_07'
p2119
g2118
sS'20140409_13'
p2120
S'324f3626-d4c7-4622-bf82-3314cb546cfc'
p2121
sS'20140409_12'
p2122
S'324f3626-d4c7-4622-bf82-3314cb546cfc'
p2123
sS'20140409_11'
p2124
S'324f3626-d4c7-4622-bf82-3314cb546cfc'
p2125
sS'20140409_09'
p2126
S'324f3626-d4c7-4622-bf82-3314cb546cfc'
p2127
sS'20140312_12'
p2128
S'3da914c6-ab24-435c-aa9f-8facdfc1b5f7'
p2129
sS'20140312_13'
p2130
g2129
sS'20140312_10'
p2131
S'3da914c6-ab24-435c-aa9f-8facdfc1b5f7'
p2132
sS'20140312_11'
p2133
g2132
sS'20140312_14'
p2134
S'3da914c6-ab24-435c-aa9f-8facdfc1b5f7'
p2135
sS'20140409_10'
p2136
g2127
sS'20140514_08'
p2137
g2112
sS'20140314_14'
p2138
S'db22b367-f7ba-4070-b582-dd8bbacce9fb'
p2139
sS'20140314_07'
p2140
S'db22b367-f7ba-4070-b582-dd8bbacce9fb'
p2141
sS'20140314_09'
p2142
g2095
sS'20140314_08'
p2143
g2141
sS'20140403_11'
p2144
S'9482e992-9491-468f-89b0-e9e293406776'
p2145
sS'20140403_10'
p2146
g2145
sS'20140403_13'
p2147
S'9482e992-9491-468f-89b0-e9e293406776'
p2148
sS'20140403_12'
p2149
g2148
sS'20140514_14'
p2150
S'324f3626-d4c7-4622-bf82-3314cb546cfc'
p2151
sS'20140514_12'
p2152
S'324f3626-d4c7-4622-bf82-3314cb546cfc'
p2153
sS'20140514_13'
p2154
g2151
sS'20140514_10'
p2155
g2114
sS'20140514_11'
p2156
S'324f3626-d4c7-4622-bf82-3314cb546cfc'
p2157
sS'20140409_06'
p2158
g2116
sS'20140409_07'
p2159
g2116
sS'20140416_13'
p2160
S'db22b367-f7ba-4070-b582-dd8bbacce9fb'
p2161
sS'20140416_12'
p2162
S'db22b367-f7ba-4070-b582-dd8bbacce9fb'
p2163
sS'20140416_11'
p2164
S'db22b367-f7ba-4070-b582-dd8bbacce9fb'
p2165
sS'20140416_10'
p2166
S'db22b367-f7ba-4070-b582-dd8bbacce9fb'
p2167
ssS'a23fd188-f0b1-4729-8f6a-862c71106c13'
p2168
(dp2169
S'20140311_14'
p2170
S'3da914c6-ab24-435c-aa9f-8facdfc1b5f7'
p2171
sS'20140311_13'
p2172
S'3da914c6-ab24-435c-aa9f-8facdfc1b5f7'
p2173
sS'20140311_12'
p2174
g2173
sS'20140311_11'
p2175
S'3da914c6-ab24-435c-aa9f-8facdfc1b5f7'
p2176
sS'20140311_10'
p2177
S'3da914c6-ab24-435c-aa9f-8facdfc1b5f7'
p2178
sS'20140320_07'
p2179
S'fee8a191-c3ca-42fd-b027-65cf73b2bf8c'
p2180
sS'20140312_07'
p2181
S'47d0b7f6-6413-47ba-ab4f-76520ce148e2'
p2182
sS'20140320_06'
p2183
g2180
sS'20140312_09'
p2184
S'47d0b7f6-6413-47ba-ab4f-76520ce148e2'
p2185
sS'20140312_08'
p2186
g2182
sS'20140314_10'
p2187
S'324f3626-d4c7-4622-bf82-3314cb546cfc'
p2188
sS'20140314_11'
p2189
g2188
sS'20140314_12'
p2190
S'324f3626-d4c7-4622-bf82-3314cb546cfc'
p2191
sS'20140314_13'
p2192
g2191
sS'20140319_08'
p2193
S'0efd2316-feb9-461c-b102-045aef8e22fe'
p2194
sS'20140319_09'
p2195
S'0efd2316-feb9-461c-b102-045aef8e22fe'
p2196
sS'20140327_07'
p2197
S'9482e992-9491-468f-89b0-e9e293406776'
p2198
sS'20140327_09'
p2199
S'9482e992-9491-468f-89b0-e9e293406776'
p2200
sS'20140319_05'
p2201
g2194
sS'20140319_06'
p2202
g2194
sS'20140319_07'
p2203
g2194
sS'20140320_12'
p2204
S'fee8a191-c3ca-42fd-b027-65cf73b2bf8c'
p2205
sS'20140320_11'
p2206
g2205
sS'20140320_10'
p2207
g2205
sS'20140424_12'
p2208
S'47d0b7f6-6413-47ba-ab4f-76520ce148e2'
p2209
sS'20140424_13'
p2210
S'47d0b7f6-6413-47ba-ab4f-76520ce148e2'
p2211
sS'20140424_10'
p2212
S'47d0b7f6-6413-47ba-ab4f-76520ce148e2'
p2213
sS'20140424_11'
p2214
g2209
sS'20140311_07'
p2215
S'3da914c6-ab24-435c-aa9f-8facdfc1b5f7'
p2216
sS'20140311_09'
p2217
g2178
sS'20140424_09'
p2218
g2213
sS'20140424_08'
p2219
g2213
sS'20140314_14'
p2220
g2191
sS'20140320_09'
p2221
g2205
sS'20140327_14'
p2222
S'9482e992-9491-468f-89b0-e9e293406776'
p2223
sS'20140314_07'
p2224
S'324f3626-d4c7-4622-bf82-3314cb546cfc'
p2225
sS'20140327_13'
p2226
g2223
sS'20140327_10'
p2227
S'9482e992-9491-468f-89b0-e9e293406776'
p2228
sS'20140327_11'
p2229
g2223
sS'20140320_05'
p2230
g2180
sS'20140314_09'
p2231
g2188
sS'20140314_08'
p2232
g2225
sS'20140319_12'
p2233
g2196
sS'20140319_11'
p2234
g2196
sS'20140319_10'
p2235
g2196
sS'20140327_12'
p2236
g2223
sS'20140320_08'
p2237
g2180
sS'20140327_08'
p2238
g2198
sS'20140424_07'
p2239
S'47d0b7f6-6413-47ba-ab4f-76520ce148e2'
p2240
sS'20140424_06'
p2241
g2240
sS'20140516_10'
p2242
S'2360f815-dcaa-4ded-9a86-a3b0c9f67450'
p2243
sS'20140516_11'
p2244
g2243
sS'20140516_12'
p2245
g2243
sS'20140516_13'
p2246
S'2360f815-dcaa-4ded-9a86-a3b0c9f67450'
p2247
sS'20140516_14'
p2248
g2247
sS'20140516_15'
p2249
g2247
sS'20140516_16'
p2250
g2247
sS'20140516_17'
p2251
g2247
ssS'e0250a72-a1e6-4987-acc5-df4d644deaf4'
p2252
(dp2253
S'20140514_06'
p2254
S'db22b367-f7ba-4070-b582-dd8bbacce9fb'
p2255
sS'20140514_08'
p2256
S'db22b367-f7ba-4070-b582-dd8bbacce9fb'
p2257
sS'20140425_09'
p2258
S'c0d88b90-e1b4-4bf4-b43d-bf4091346b2c'
p2259
sS'20140425_11'
p2260
S'c0d88b90-e1b4-4bf4-b43d-bf4091346b2c'
p2261
sS'20140514_09'
p2262
g2257
sS'20140528_06'
p2263
S'9482e992-9491-468f-89b0-e9e293406776'
p2264
sS'20140528_07'
p2265
S'9482e992-9491-468f-89b0-e9e293406776'
p2266
sS'20140507_12'
p2267
S'3da914c6-ab24-435c-aa9f-8facdfc1b5f7'
p2268
sS'20140507_13'
p2269
g2268
sS'20140507_10'
p2270
S'3da914c6-ab24-435c-aa9f-8facdfc1b5f7'
p2271
sS'20140507_11'
p2272
g2268
sS'20140410_06'
p2273
S'324f3626-d4c7-4622-bf82-3314cb546cfc'
p2274
sS'20140410_07'
p2275
g2274
sS'20140416_06'
p2276
S'b851ca6c-8885-44a4-96b4-5c93d2975c9a'
p2277
sS'20140416_07'
p2278
g2277
sS'20140425_10'
p2279
g2259
sS'20140528_08'
p2280
g2266
sS'20140528_09'
p2281
g2266
sS'20140425_08'
p2282
S'c0d88b90-e1b4-4bf4-b43d-bf4091346b2c'
p2283
sS'20140514_07'
p2284
g2255
sS'20140410_08'
p2285
S'324f3626-d4c7-4622-bf82-3314cb546cfc'
p2286
sS'20140416_08'
p2287
S'b851ca6c-8885-44a4-96b4-5c93d2975c9a'
p2288
sS'20140410_09'
p2289
S'324f3626-d4c7-4622-bf82-3314cb546cfc'
p2290
sS'20140425_07'
p2291
S'c0d88b90-e1b4-4bf4-b43d-bf4091346b2c'
p2292
sS'20140507_09'
p2293
g2271
sS'20140410_10'
p2294
g2290
sS'20140425_13'
p2295
S'c0d88b90-e1b4-4bf4-b43d-bf4091346b2c'
p2296
sS'20140425_12'
p2297
g2261
sS'20140514_10'
p2298
g2257
sS'20140425_14'
p2299
S'c0d88b90-e1b4-4bf4-b43d-bf4091346b2c'
p2300
sS'20140528_11'
p2301
S'9482e992-9491-468f-89b0-e9e293406776'
p2302
sS'20140528_13'
p2303
g2302
sS'20140528_12'
p2304
g2302
sS'20140416_09'
p2305
S'b851ca6c-8885-44a4-96b4-5c93d2975c9a'
p2306
sS'20140507_07'
p2307
S'3da914c6-ab24-435c-aa9f-8facdfc1b5f7'
p2308
sS'20140507_06'
p2309
g2308
sS'20140410_11'
p2310
S'324f3626-d4c7-4622-bf82-3314cb546cfc'
p2311
sS'20140507_08'
p2312
g2308
sS'20140410_13'
p2313
S'324f3626-d4c7-4622-bf82-3314cb546cfc'
p2314
sS'20140410_12'
p2315
S'324f3626-d4c7-4622-bf82-3314cb546cfc'
p2316
sS'20140416_13'
p2317
S'b851ca6c-8885-44a4-96b4-5c93d2975c9a'
p2318
sS'20140416_12'
p2319
S'b851ca6c-8885-44a4-96b4-5c93d2975c9a'
p2320
sS'20140416_11'
p2321
g2320
sS'20140416_10'
p2322
S'b851ca6c-8885-44a4-96b4-5c93d2975c9a'
p2323
ssS'992879e3-86a7-49f3-a728-52f1d7a52596'
p2324
(dp2325
S'20140321_14'
p2326
S'db22b367-f7ba-4070-b582-dd8bbacce9fb'
p2327
sS'20140321_15'
p2328
g2327
sS'20140321_16'
p2329
g2327
sS'20140321_17'
p2330
g2327
sS'20140321_10'
p2331
S'db22b367-f7ba-4070-b582-dd8bbacce9fb'
p2332
sS'20140321_11'
p2333
S'db22b367-f7ba-4070-b582-dd8bbacce9fb'
p2334
sS'20140321_12'
p2335
g2334
sS'20140321_13'
p2336
g2327
sS'20140312_07'
p2337
S'0efd2316-feb9-461c-b102-045aef8e22fe'
p2338
sS'20140312_09'
p2339
S'0efd2316-feb9-461c-b102-045aef8e22fe'
p2340
sS'20140312_08'
p2341
g2338
sS'20140306_14'
p2342
S'9482e992-9491-468f-89b0-e9e293406776'
p2343
sS'20140306_13'
p2344
g2343
sS'20140306_12'
p2345
S'9482e992-9491-468f-89b0-e9e293406776'
p2346
sS'20140306_11'
p2347
S'9482e992-9491-468f-89b0-e9e293406776'
p2348
sS'20140306_10'
p2349
g2348
sS'20140310_09'
p2350
S'9482e992-9491-468f-89b0-e9e293406776'
p2351
sS'20140310_08'
p2352
S'9482e992-9491-468f-89b0-e9e293406776'
p2353
sS'20140310_07'
p2354
g2353
sS'20140312_12'
p2355
S'0efd2316-feb9-461c-b102-045aef8e22fe'
p2356
sS'20140312_13'
p2357
g2356
sS'20140312_10'
p2358
g2340
sS'20140312_11'
p2359
S'0efd2316-feb9-461c-b102-045aef8e22fe'
p2360
sS'20140312_14'
p2361
g2356
sS'20140306_08'
p2362
S'9482e992-9491-468f-89b0-e9e293406776'
p2363
sS'20140306_09'
p2364
g2363
sS'20140306_07'
p2365
S'9482e992-9491-468f-89b0-e9e293406776'
p2366
sS'20140310_14'
p2367
S'9482e992-9491-468f-89b0-e9e293406776'
p2368
sS'20140310_10'
p2369
S'9482e992-9491-468f-89b0-e9e293406776'
p2370
sS'20140310_11'
p2371
g2370
sS'20140310_12'
p2372
S'9482e992-9491-468f-89b0-e9e293406776'
p2373
sS'20140310_13'
p2374
g2368
ssS'102de471-cb6b-45be-9d8c-b8ffe56f906f'
p2375
(dp2376
S'20140414_08'
p2377
S'0efd2316-feb9-461c-b102-045aef8e22fe'
p2378
sS'20140414_09'
p2379
g2378
sS'20140414_06'
p2380
S'0efd2316-feb9-461c-b102-045aef8e22fe'
p2381
sS'20140414_07'
p2382
S'0efd2316-feb9-461c-b102-045aef8e22fe'
p2383
sS'20140428_12'
p2384
S'47d0b7f6-6413-47ba-ab4f-76520ce148e2'
p2385
sS'20140428_13'
p2386
g2385
sS'20140428_10'
p2387
S'47d0b7f6-6413-47ba-ab4f-76520ce148e2'
p2388
sS'20140428_11'
p2389
S'47d0b7f6-6413-47ba-ab4f-76520ce148e2'
p2390
sS'20140424_12'
p2391
S'3da914c6-ab24-435c-aa9f-8facdfc1b5f7'
p2392
sS'20140424_13'
p2393
S'3da914c6-ab24-435c-aa9f-8facdfc1b5f7'
p2394
sS'20140424_10'
p2395
S'3da914c6-ab24-435c-aa9f-8facdfc1b5f7'
p2396
sS'20140424_11'
p2397
g2392
sS'20140414_11'
p2398
S'0efd2316-feb9-461c-b102-045aef8e22fe'
p2399
sS'20140414_10'
p2400
S'0efd2316-feb9-461c-b102-045aef8e22fe'
p2401
sS'20140414_13'
p2402
S'0efd2316-feb9-461c-b102-045aef8e22fe'
p2403
sS'20140414_12'
p2404
g2403
sS'20140428_07'
p2405
S'47d0b7f6-6413-47ba-ab4f-76520ce148e2'
p2406
sS'20140428_06'
p2407
S'47d0b7f6-6413-47ba-ab4f-76520ce148e2'
p2408
sS'20140428_09'
p2409
g2388
sS'20140428_08'
p2410
g2406
sS'20140424_07'
p2411
S'3da914c6-ab24-435c-aa9f-8facdfc1b5f7'
p2412
sS'20140424_06'
p2413
g2412
sS'20140424_09'
p2414
g2396
sS'20140424_08'
p2415
S'3da914c6-ab24-435c-aa9f-8facdfc1b5f7'
p2416
ssS'2739dc4b-f6f5-476c-a7ad-38e40ff88186'
p2417
(dp2418
S'20140402_07'
p2419
S'fee8a191-c3ca-42fd-b027-65cf73b2bf8c'
p2420
sS'20140402_06'
p2421
S'fee8a191-c3ca-42fd-b027-65cf73b2bf8c'
p2422
sS'20140409_07'
p2423
S'fee8a191-c3ca-42fd-b027-65cf73b2bf8c'
p2424
sS'20140402_09'
p2425
S'fee8a191-c3ca-42fd-b027-65cf73b2bf8c'
p2426
sS'20140402_08'
p2427
g2420
sS'20140409_12'
p2428
S'fee8a191-c3ca-42fd-b027-65cf73b2bf8c'
p2429
sS'20140409_08'
p2430
S'fee8a191-c3ca-42fd-b027-65cf73b2bf8c'
p2431
sS'20140409_09'
p2432
S'fee8a191-c3ca-42fd-b027-65cf73b2bf8c'
p2433
sS'20140402_12'
p2434
S'fee8a191-c3ca-42fd-b027-65cf73b2bf8c'
p2435
sS'20140402_13'
p2436
S'fee8a191-c3ca-42fd-b027-65cf73b2bf8c'
p2437
sS'20140402_10'
p2438
S'fee8a191-c3ca-42fd-b027-65cf73b2bf8c'
p2439
sS'20140402_11'
p2440
g2439
sS'20140409_13'
p2441
g2429
sS'20140409_06'
p2442
S'fee8a191-c3ca-42fd-b027-65cf73b2bf8c'
p2443
sS'20140409_11'
p2444
S'fee8a191-c3ca-42fd-b027-65cf73b2bf8c'
p2445
sS'20140409_10'
p2446
g2433
ssS'1f0765b3-435b-4644-85c7-0ab7bfe44501'
p2447
(dp2448
S'20140416_06'
p2449
S'c0d88b90-e1b4-4bf4-b43d-bf4091346b2c'
p2450
sS'20140416_10'
p2451
S'c0d88b90-e1b4-4bf4-b43d-bf4091346b2c'
p2452
sS'20140508_13'
p2453
S'fee8a191-c3ca-42fd-b027-65cf73b2bf8c'
p2454
sS'20140508_12'
p2455
S'fee8a191-c3ca-42fd-b027-65cf73b2bf8c'
p2456
sS'20140508_11'
p2457
g2456
sS'20140508_10'
p2458
S'fee8a191-c3ca-42fd-b027-65cf73b2bf8c'
p2459
sS'20140416_07'
p2460
g2450
sS'20140508_09'
p2461
g2459
sS'20140430_08'
p2462
S'0efd2316-feb9-461c-b102-045aef8e22fe'
p2463
sS'20140430_09'
p2464
S'0efd2316-feb9-461c-b102-045aef8e22fe'
p2465
sS'20140515_08'
p2466
S'9482e992-9491-468f-89b0-e9e293406776'
p2467
sS'20140515_09'
p2468
S'9482e992-9491-468f-89b0-e9e293406776'
p2469
sS'20140515_06'
p2470
S'9482e992-9491-468f-89b0-e9e293406776'
p2471
sS'20140515_07'
p2472
g2471
sS'20140430_06'
p2473
S'0efd2316-feb9-461c-b102-045aef8e22fe'
p2474
sS'20140430_07'
p2475
g2474
sS'20140409_13'
p2476
S'b851ca6c-8885-44a4-96b4-5c93d2975c9a'
p2477
sS'20140409_12'
p2478
S'b851ca6c-8885-44a4-96b4-5c93d2975c9a'
p2479
sS'20140409_11'
p2480
S'b851ca6c-8885-44a4-96b4-5c93d2975c9a'
p2481
sS'20140409_10'
p2482
g2481
sS'20140430_10'
p2483
g2465
sS'20140416_08'
p2484
g2450
sS'20140508_06'
p2485
S'fee8a191-c3ca-42fd-b027-65cf73b2bf8c'
p2486
sS'20140416_12'
p2487
S'c0d88b90-e1b4-4bf4-b43d-bf4091346b2c'
p2488
sS'20140416_05'
p2489
g2450
sS'20140508_08'
p2490
g2459
sS'20140515_13'
p2491
S'9482e992-9491-468f-89b0-e9e293406776'
p2492
sS'20140409_07'
p2493
S'b851ca6c-8885-44a4-96b4-5c93d2975c9a'
p2494
sS'20140416_09'
p2495
S'c0d88b90-e1b4-4bf4-b43d-bf4091346b2c'
p2496
sS'20140430_13'
p2497
S'0efd2316-feb9-461c-b102-045aef8e22fe'
p2498
sS'20140430_12'
p2499
g2498
sS'20140416_11'
p2500
g2452
sS'20140508_07'
p2501
g2459
sS'20140409_08'
p2502
g2494
sS'20140409_09'
p2503
S'b851ca6c-8885-44a4-96b4-5c93d2975c9a'
p2504
sS'20140515_11'
p2505
g2492
sS'20140515_10'
p2506
S'9482e992-9491-468f-89b0-e9e293406776'
p2507
sS'20140409_06'
p2508
S'b851ca6c-8885-44a4-96b4-5c93d2975c9a'
p2509
sS'20140515_12'
p2510
g2492
sS'20140515_15'
p2511
S'9482e992-9491-468f-89b0-e9e293406776'
p2512
sS'20140515_14'
p2513
S'9482e992-9491-468f-89b0-e9e293406776'
p2514
sS'20140430_11'
p2515
S'0efd2316-feb9-461c-b102-045aef8e22fe'
p2516
sS'20140515_16'
p2517
S'9482e992-9491-468f-89b0-e9e293406776'
p2518
ssS'7b589433-4a75-41f0-9b79-115e6134a5af'
p2519
(dp2520
S'20140304_15'
p2521
S'b851ca6c-8885-44a4-96b4-5c93d2975c9a'
p2522
sS'20140304_14'
p2523
g2522
sS'20140304_10'
p2524
S'b851ca6c-8885-44a4-96b4-5c93d2975c9a'
p2525
sS'20140304_13'
p2526
g2522
sS'20140304_12'
p2527
g2522
sS'20140312_07'
p2528
S'c0d88b90-e1b4-4bf4-b43d-bf4091346b2c'
p2529
sS'20140312_09'
p2530
S'c0d88b90-e1b4-4bf4-b43d-bf4091346b2c'
p2531
sS'20140312_08'
p2532
g2531
sS'20140304_08'
p2533
S'b851ca6c-8885-44a4-96b4-5c93d2975c9a'
p2534
sS'20140304_09'
p2535
g2525
sS'20140310_09'
p2536
S'fee8a191-c3ca-42fd-b027-65cf73b2bf8c'
p2537
sS'20140310_08'
p2538
S'fee8a191-c3ca-42fd-b027-65cf73b2bf8c'
p2539
sS'20140310_07'
p2540
g2539
sS'20140304_07'
p2541
S'b851ca6c-8885-44a4-96b4-5c93d2975c9a'
p2542
sS'20140312_12'
p2543
S'c0d88b90-e1b4-4bf4-b43d-bf4091346b2c'
p2544
sS'20140312_13'
p2545
g2544
sS'20140312_10'
p2546
g2531
sS'20140312_11'
p2547
g2531
sS'20140312_14'
p2548
g2544
sS'20140310_14'
p2549
S'fee8a191-c3ca-42fd-b027-65cf73b2bf8c'
p2550
sS'20140310_10'
p2551
S'fee8a191-c3ca-42fd-b027-65cf73b2bf8c'
p2552
sS'20140310_11'
p2553
g2552
sS'20140310_12'
p2554
g2552
sS'20140310_13'
p2555
g2550
ssS'ee431320-4e04-4600-afac-23fdd5f5b464'
p2556
(dp2557
S'20140321_10'
p2558
S'3da914c6-ab24-435c-aa9f-8facdfc1b5f7'
p2559
sS'20140321_11'
p2560
g2559
sS'20140321_12'
p2561
S'3da914c6-ab24-435c-aa9f-8facdfc1b5f7'
p2562
sS'20140506_11'
p2563
S'b851ca6c-8885-44a4-96b4-5c93d2975c9a'
p2564
sS'20140506_10'
p2565
S'b851ca6c-8885-44a4-96b4-5c93d2975c9a'
p2566
sS'20140422_13'
p2567
S'fee8a191-c3ca-42fd-b027-65cf73b2bf8c'
p2568
sS'20140401_13'
p2569
S'3da914c6-ab24-435c-aa9f-8facdfc1b5f7'
p2570
sS'20140401_12'
p2571
g2570
sS'20140401_11'
p2572
S'3da914c6-ab24-435c-aa9f-8facdfc1b5f7'
p2573
sS'20140401_10'
p2574
g2573
sS'20140506_06'
p2575
S'b851ca6c-8885-44a4-96b4-5c93d2975c9a'
p2576
sS'20140422_10'
p2577
S'fee8a191-c3ca-42fd-b027-65cf73b2bf8c'
p2578
sS'20140403_06'
p2579
S'b851ca6c-8885-44a4-96b4-5c93d2975c9a'
p2580
sS'20140403_07'
p2581
g2580
sS'20140403_08'
p2582
g2580
sS'20140403_09'
p2583
S'b851ca6c-8885-44a4-96b4-5c93d2975c9a'
p2584
sS'20140320_13'
p2585
S'324f3626-d4c7-4622-bf82-3314cb546cfc'
p2586
sS'20140320_12'
p2587
g2586
sS'20140320_11'
p2588
g2586
sS'20140320_10'
p2589
S'324f3626-d4c7-4622-bf82-3314cb546cfc'
p2590
sS'20140505_12'
p2591
S'3da914c6-ab24-435c-aa9f-8facdfc1b5f7'
p2592
sS'20140505_08'
p2593
S'3da914c6-ab24-435c-aa9f-8facdfc1b5f7'
p2594
sS'20140404_07'
p2595
S'2360f815-dcaa-4ded-9a86-a3b0c9f67450'
p2596
sS'20140506_07'
p2597
g2576
sS'20140520_11'
p2598
S'0efd2316-feb9-461c-b102-045aef8e22fe'
p2599
sS'20140520_10'
p2600
S'0efd2316-feb9-461c-b102-045aef8e22fe'
p2601
sS'20140404_09'
p2602
S'2360f815-dcaa-4ded-9a86-a3b0c9f67450'
p2603
sS'20140404_08'
p2604
g2596
sS'20140321_07'
p2605
S'3da914c6-ab24-435c-aa9f-8facdfc1b5f7'
p2606
sS'20140321_06'
p2607
S'3da914c6-ab24-435c-aa9f-8facdfc1b5f7'
p2608
sS'20140321_05'
p2609
g2608
sS'20140506_13'
p2610
S'b851ca6c-8885-44a4-96b4-5c93d2975c9a'
p2611
sS'20140506_08'
p2612
S'b851ca6c-8885-44a4-96b4-5c93d2975c9a'
p2613
sS'20140506_09'
p2614
g2613
sS'20140321_09'
p2615
g2559
sS'20140321_08'
p2616
g2606
sS'20140422_07'
p2617
S'fee8a191-c3ca-42fd-b027-65cf73b2bf8c'
p2618
sS'20140505_10'
p2619
S'3da914c6-ab24-435c-aa9f-8facdfc1b5f7'
p2620
sS'20140401_06'
p2621
S'3da914c6-ab24-435c-aa9f-8facdfc1b5f7'
p2622
sS'20140401_07'
p2623
g2622
sS'20140505_09'
p2624
g2620
sS'20140505_11'
p2625
S'3da914c6-ab24-435c-aa9f-8facdfc1b5f7'
p2626
sS'20140422_12'
p2627
g2568
sS'20140401_08'
p2628
S'3da914c6-ab24-435c-aa9f-8facdfc1b5f7'
p2629
sS'20140401_09'
p2630
g2629
sS'20140422_09'
p2631
g2578
sS'20140422_08'
p2632
S'fee8a191-c3ca-42fd-b027-65cf73b2bf8c'
p2633
sS'20140506_12'
p2634
g2564
sS'20140505_13'
p2635
g2592
sS'20140320_08'
p2636
S'324f3626-d4c7-4622-bf82-3314cb546cfc'
p2637
sS'20140320_09'
p2638
g2590
sS'20140422_06'
p2639
g2618
sS'20140320_05'
p2640
S'324f3626-d4c7-4622-bf82-3314cb546cfc'
p2641
sS'20140320_06'
p2642
g2641
sS'20140320_07'
p2643
g2637
sS'20140403_11'
p2644
S'b851ca6c-8885-44a4-96b4-5c93d2975c9a'
p2645
sS'20140403_10'
p2646
g2584
sS'20140403_13'
p2647
S'b851ca6c-8885-44a4-96b4-5c93d2975c9a'
p2648
sS'20140403_12'
p2649
g2645
sS'20140404_10'
p2650
g2603
sS'20140404_11'
p2651
S'2360f815-dcaa-4ded-9a86-a3b0c9f67450'
p2652
sS'20140404_12'
p2653
g2652
sS'20140404_13'
p2654
S'2360f815-dcaa-4ded-9a86-a3b0c9f67450'
p2655
sS'20140404_14'
p2656
g2655
sS'20140520_08'
p2657
g2601
sS'20140520_09'
p2658
g2601
sS'20140520_06'
p2659
S'0efd2316-feb9-461c-b102-045aef8e22fe'
p2660
sS'20140520_07'
p2661
g2660
sS'20140505_07'
p2662
S'3da914c6-ab24-435c-aa9f-8facdfc1b5f7'
p2663
sS'20140505_06'
p2664
g2663
sS'20140422_11'
p2665
S'fee8a191-c3ca-42fd-b027-65cf73b2bf8c'
p2666
ssS'c0fb4691-8c98-4bb9-bc40-f5553adf90d7'
p2667
(dp2668
S'20140508_13'
p2669
S'47d0b7f6-6413-47ba-ab4f-76520ce148e2'
p2670
sS'20140313_07'
p2671
S'3da914c6-ab24-435c-aa9f-8facdfc1b5f7'
p2672
sS'20140508_11'
p2673
S'47d0b7f6-6413-47ba-ab4f-76520ce148e2'
p2674
sS'20140508_10'
p2675
S'47d0b7f6-6413-47ba-ab4f-76520ce148e2'
p2676
sS'20140402_12'
p2677
S'3da914c6-ab24-435c-aa9f-8facdfc1b5f7'
p2678
sS'20140402_13'
p2679
S'3da914c6-ab24-435c-aa9f-8facdfc1b5f7'
p2680
sS'20140402_10'
p2681
g2678
sS'20140402_11'
p2682
g2678
sS'20140313_08'
p2683
g2672
sS'20140313_09'
p2684
g2672
sS'20140508_08'
p2685
S'47d0b7f6-6413-47ba-ab4f-76520ce148e2'
p2686
sS'20140508_09'
p2687
g2676
sS'20140404_07'
p2688
S'3da914c6-ab24-435c-aa9f-8facdfc1b5f7'
p2689
sS'20140404_06'
p2690
g2689
sS'20140410_08'
p2691
S'3da914c6-ab24-435c-aa9f-8facdfc1b5f7'
p2692
sS'20140410_09'
p2693
g2692
sS'20140410_07'
p2694
S'3da914c6-ab24-435c-aa9f-8facdfc1b5f7'
p2695
sS'20140404_09'
p2696
S'3da914c6-ab24-435c-aa9f-8facdfc1b5f7'
p2697
sS'20140404_08'
p2698
g2697
sS'20140508_06'
p2699
S'47d0b7f6-6413-47ba-ab4f-76520ce148e2'
p2700
sS'20140508_07'
p2701
S'47d0b7f6-6413-47ba-ab4f-76520ce148e2'
p2702
sS'20140313_14'
p2703
S'3da914c6-ab24-435c-aa9f-8facdfc1b5f7'
p2704
sS'20140313_11'
p2705
g2672
sS'20140313_10'
p2706
g2672
sS'20140313_13'
p2707
g2672
sS'20140313_12'
p2708
g2672
sS'20140402_07'
p2709
S'3da914c6-ab24-435c-aa9f-8facdfc1b5f7'
p2710
sS'20140402_06'
p2711
S'3da914c6-ab24-435c-aa9f-8facdfc1b5f7'
p2712
sS'20140402_09'
p2713
g2678
sS'20140402_08'
p2714
g2710
sS'20140404_10'
p2715
g2697
sS'20140404_11'
p2716
g2697
sS'20140404_12'
p2717
S'3da914c6-ab24-435c-aa9f-8facdfc1b5f7'
p2718
sS'20140404_13'
p2719
g2718
sS'20140410_11'
p2720
S'3da914c6-ab24-435c-aa9f-8facdfc1b5f7'
p2721
sS'20140410_10'
p2722
S'3da914c6-ab24-435c-aa9f-8facdfc1b5f7'
p2723
sS'20140410_13'
p2724
S'3da914c6-ab24-435c-aa9f-8facdfc1b5f7'
p2725
sS'20140410_12'
p2726
g2725
sS'20140508_12'
p2727
g2674
ssS'8a6ddcaf-8361-4035-aea3-5d3f0c67132d'
p2728
(dp2729
S'20140321_14'
p2730
S'324f3626-d4c7-4622-bf82-3314cb546cfc'
p2731
sS'20140321_15'
p2732
g2731
sS'20140321_16'
p2733
S'324f3626-d4c7-4622-bf82-3314cb546cfc'
p2734
sS'20140321_17'
p2735
g2734
sS'20140321_10'
p2736
S'324f3626-d4c7-4622-bf82-3314cb546cfc'
p2737
sS'20140321_11'
p2738
g2737
sS'20140321_12'
p2739
g2737
sS'20140321_13'
p2740
g2731
sS'20140514_08'
p2741
S'fee8a191-c3ca-42fd-b027-65cf73b2bf8c'
p2742
sS'20140328_07'
p2743
S'db22b367-f7ba-4070-b582-dd8bbacce9fb'
p2744
sS'20140403_06'
p2745
S'fee8a191-c3ca-42fd-b027-65cf73b2bf8c'
p2746
sS'20140407_11'
p2747
S'3da914c6-ab24-435c-aa9f-8facdfc1b5f7'
p2748
sS'20140407_10'
p2749
S'3da914c6-ab24-435c-aa9f-8facdfc1b5f7'
p2750
sS'20140407_13'
p2751
S'3da914c6-ab24-435c-aa9f-8facdfc1b5f7'
p2752
sS'20140407_12'
p2753
S'3da914c6-ab24-435c-aa9f-8facdfc1b5f7'
p2754
sS'20140407_14'
p2755
S'3da914c6-ab24-435c-aa9f-8facdfc1b5f7'
p2756
sS'20140304_14'
p2757
S'324f3626-d4c7-4622-bf82-3314cb546cfc'
p2758
sS'20140304_11'
p2759
S'324f3626-d4c7-4622-bf82-3314cb546cfc'
p2760
sS'20140304_10'
p2761
S'324f3626-d4c7-4622-bf82-3314cb546cfc'
p2762
sS'20140304_13'
p2763
S'324f3626-d4c7-4622-bf82-3314cb546cfc'
p2764
sS'20140304_12'
p2765
g2764
sS'20140407_06'
p2766
S'3da914c6-ab24-435c-aa9f-8facdfc1b5f7'
p2767
sS'20140407_07'
p2768
S'3da914c6-ab24-435c-aa9f-8facdfc1b5f7'
p2769
sS'20140407_08'
p2770
g2769
sS'20140407_09'
p2771
S'3da914c6-ab24-435c-aa9f-8facdfc1b5f7'
p2772
sS'20140328_14'
p2773
S'db22b367-f7ba-4070-b582-dd8bbacce9fb'
p2774
sS'20140328_13'
p2775
S'db22b367-f7ba-4070-b582-dd8bbacce9fb'
p2776
sS'20140328_12'
p2777
g2776
sS'20140328_11'
p2778
S'db22b367-f7ba-4070-b582-dd8bbacce9fb'
p2779
sS'20140328_10'
p2780
g2779
sS'20140324_13'
p2781
S'324f3626-d4c7-4622-bf82-3314cb546cfc'
p2782
sS'20140324_12'
p2783
S'324f3626-d4c7-4622-bf82-3314cb546cfc'
p2784
sS'20140324_11'
p2785
S'324f3626-d4c7-4622-bf82-3314cb546cfc'
p2786
sS'20140324_10'
p2787
g2786
sS'20140324_15'
p2788
S'324f3626-d4c7-4622-bf82-3314cb546cfc'
p2789
sS'20140324_14'
p2790
g2789
sS'20140303_09'
p2791
S'324f3626-d4c7-4622-bf82-3314cb546cfc'
p2792
sS'20140303_08'
p2793
g2792
sS'20140303_07'
p2794
S'324f3626-d4c7-4622-bf82-3314cb546cfc'
p2795
sS'20140505_09'
p2796
S'fee8a191-c3ca-42fd-b027-65cf73b2bf8c'
p2797
sS'20140505_08'
p2798
g2797
sS'20140505_07'
p2799
S'fee8a191-c3ca-42fd-b027-65cf73b2bf8c'
p2800
sS'20140505_06'
p2801
S'fee8a191-c3ca-42fd-b027-65cf73b2bf8c'
p2802
sS'20140306_14'
p2803
S'0efd2316-feb9-461c-b102-045aef8e22fe'
p2804
sS'20140303_14'
p2805
S'324f3626-d4c7-4622-bf82-3314cb546cfc'
p2806
sS'20140328_08'
p2807
S'db22b367-f7ba-4070-b582-dd8bbacce9fb'
p2808
sS'20140328_09'
p2809
g2779
sS'20140512_07'
p2810
S'db22b367-f7ba-4070-b582-dd8bbacce9fb'
p2811
sS'20140512_06'
p2812
g2811
sS'20140324_07'
p2813
S'324f3626-d4c7-4622-bf82-3314cb546cfc'
p2814
sS'20140324_08'
p2815
g2814
sS'20140324_09'
p2816
S'324f3626-d4c7-4622-bf82-3314cb546cfc'
p2817
sS'20140512_09'
p2818
S'db22b367-f7ba-4070-b582-dd8bbacce9fb'
p2819
sS'20140512_08'
p2820
g2811
sS'20140303_10'
p2821
S'324f3626-d4c7-4622-bf82-3314cb546cfc'
p2822
sS'20140303_11'
p2823
g2822
sS'20140303_13'
p2824
S'324f3626-d4c7-4622-bf82-3314cb546cfc'
p2825
sS'20140306_13'
p2826
g2804
sS'20140306_12'
p2827
S'0efd2316-feb9-461c-b102-045aef8e22fe'
p2828
sS'20140306_11'
p2829
g2828
sS'20140306_10'
p2830
S'0efd2316-feb9-461c-b102-045aef8e22fe'
p2831
sS'20140304_08'
p2832
S'324f3626-d4c7-4622-bf82-3314cb546cfc'
p2833
sS'20140304_09'
p2834
g2833
sS'20140514_07'
p2835
S'fee8a191-c3ca-42fd-b027-65cf73b2bf8c'
p2836
sS'20140514_06'
p2837
g2836
sS'20140505_10'
p2838
g2797
sS'20140505_11'
p2839
S'fee8a191-c3ca-42fd-b027-65cf73b2bf8c'
p2840
sS'20140505_12'
p2841
g2840
sS'20140505_13'
p2842
g2840
sS'20140304_07'
p2843
S'324f3626-d4c7-4622-bf82-3314cb546cfc'
p2844
sS'20140512_14'
p2845
S'db22b367-f7ba-4070-b582-dd8bbacce9fb'
p2846
sS'20140514_09'
p2847
S'fee8a191-c3ca-42fd-b027-65cf73b2bf8c'
p2848
sS'20140512_10'
p2849
S'db22b367-f7ba-4070-b582-dd8bbacce9fb'
p2850
sS'20140512_11'
p2851
g2846
sS'20140512_12'
p2852
g2846
sS'20140512_13'
p2853
g2846
sS'20140306_08'
p2854
S'0efd2316-feb9-461c-b102-045aef8e22fe'
p2855
sS'20140306_09'
p2856
S'0efd2316-feb9-461c-b102-045aef8e22fe'
p2857
sS'20140306_07'
p2858
g2855
sS'20140514_12'
p2859
S'fee8a191-c3ca-42fd-b027-65cf73b2bf8c'
p2860
sS'20140514_13'
p2861
g2860
sS'20140514_10'
p2862
g2848
sS'20140514_11'
p2863
g2860
sS'20140318_07'
p2864
S'324f3626-d4c7-4622-bf82-3314cb546cfc'
p2865
sS'20140318_06'
p2866
g2865
sS'20140318_05'
p2867
g2865
sS'20140318_09'
p2868
g2865
sS'20140318_08'
p2869
g2865
sS'20140317_08'
p2870
S'9482e992-9491-468f-89b0-e9e293406776'
p2871
sS'20140317_09'
p2872
S'9482e992-9491-468f-89b0-e9e293406776'
p2873
sS'20140317_11'
p2874
S'9482e992-9491-468f-89b0-e9e293406776'
p2875
sS'20140317_10'
p2876
g2873
sS'20140317_12'
p2877
g2875
sS'20140318_10'
p2878
S'324f3626-d4c7-4622-bf82-3314cb546cfc'
p2879
sS'20140318_11'
p2880
S'324f3626-d4c7-4622-bf82-3314cb546cfc'
p2881
sS'20140318_12'
p2882
g2881
sS'20140317_06'
p2883
g2871
sS'20140317_07'
p2884
g2871
sS'20140317_05'
p2885
g2871
sS'20140403_13'
p2886
S'fee8a191-c3ca-42fd-b027-65cf73b2bf8c'
p2887
sS'20140403_12'
p2888
g2887
ssS'683362d7-55fc-4a20-8c8c-2d00301e627a'
p2889
(dp2890
S'20140428_10'
p2891
S'db22b367-f7ba-4070-b582-dd8bbacce9fb'
p2892
sS'20140306_14'
p2893
S'c0d88b90-e1b4-4bf4-b43d-bf4091346b2c'
p2894
sS'20140313_10'
p2895
S'db22b367-f7ba-4070-b582-dd8bbacce9fb'
p2896
sS'20140428_13'
p2897
S'db22b367-f7ba-4070-b582-dd8bbacce9fb'
p2898
sS'20140402_09'
p2899
S'0efd2316-feb9-461c-b102-045aef8e22fe'
p2900
sS'20140428_09'
p2901
S'db22b367-f7ba-4070-b582-dd8bbacce9fb'
p2902
sS'20140428_08'
p2903
S'db22b367-f7ba-4070-b582-dd8bbacce9fb'
p2904
sS'20140428_12'
p2905
S'db22b367-f7ba-4070-b582-dd8bbacce9fb'
p2906
sS'20140422_10'
p2907
S'0efd2316-feb9-461c-b102-045aef8e22fe'
p2908
sS'20140422_11'
p2909
S'0efd2316-feb9-461c-b102-045aef8e22fe'
p2910
sS'20140422_12'
p2911
g2910
sS'20140422_13'
p2912
g2910
sS'20140402_12'
p2913
S'0efd2316-feb9-461c-b102-045aef8e22fe'
p2914
sS'20140402_13'
p2915
S'0efd2316-feb9-461c-b102-045aef8e22fe'
p2916
sS'20140402_10'
p2917
S'0efd2316-feb9-461c-b102-045aef8e22fe'
p2918
sS'20140402_11'
p2919
g2918
sS'20140313_08'
p2920
S'db22b367-f7ba-4070-b582-dd8bbacce9fb'
p2921
sS'20140428_11'
p2922
g2892
sS'20140313_09'
p2923
g2896
sS'20140313_13'
p2924
S'db22b367-f7ba-4070-b582-dd8bbacce9fb'
p2925
sS'20140325_10'
p2926
S'0efd2316-feb9-461c-b102-045aef8e22fe'
p2927
sS'20140325_11'
p2928
S'0efd2316-feb9-461c-b102-045aef8e22fe'
p2929
sS'20140325_12'
p2930
g2929
sS'20140325_13'
p2931
S'0efd2316-feb9-461c-b102-045aef8e22fe'
p2932
sS'20140325_14'
p2933
g2932
sS'20140306_12'
p2934
S'c0d88b90-e1b4-4bf4-b43d-bf4091346b2c'
p2935
sS'20140306_11'
p2936
S'c0d88b90-e1b4-4bf4-b43d-bf4091346b2c'
p2937
sS'20140306_10'
p2938
S'c0d88b90-e1b4-4bf4-b43d-bf4091346b2c'
p2939
sS'20140416_08'
p2940
S'0efd2316-feb9-461c-b102-045aef8e22fe'
p2941
sS'20140416_09'
p2942
g2941
sS'20140505_10'
p2943
S'47d0b7f6-6413-47ba-ab4f-76520ce148e2'
p2944
sS'20140505_11'
p2945
g2944
sS'20140416_06'
p2946
S'0efd2316-feb9-461c-b102-045aef8e22fe'
p2947
sS'20140416_07'
p2948
g2947
sS'20140505_14'
p2949
S'47d0b7f6-6413-47ba-ab4f-76520ce148e2'
p2950
sS'20140428_06'
p2951
g2904
sS'20140313_12'
p2952
g2925
sS'20140505_13'
p2953
g2950
sS'20140306_13'
p2954
g2894
sS'20140402_07'
p2955
S'0efd2316-feb9-461c-b102-045aef8e22fe'
p2956
sS'20140422_07'
p2957
S'0efd2316-feb9-461c-b102-045aef8e22fe'
p2958
sS'20140422_06'
p2959
g2958
sS'20140402_06'
p2960
g2956
sS'20140313_14'
p2961
S'db22b367-f7ba-4070-b582-dd8bbacce9fb'
p2962
sS'20140313_11'
p2963
S'db22b367-f7ba-4070-b582-dd8bbacce9fb'
p2964
sS'20140505_12'
p2965
g2950
sS'20140422_09'
p2966
g2908
sS'20140422_08'
p2967
S'0efd2316-feb9-461c-b102-045aef8e22fe'
p2968
sS'20140428_07'
p2969
g2904
sS'20140325_09'
p2970
g2927
sS'20140325_08'
p2971
S'0efd2316-feb9-461c-b102-045aef8e22fe'
p2972
sS'20140306_08'
p2973
S'c0d88b90-e1b4-4bf4-b43d-bf4091346b2c'
p2974
sS'20140505_07'
p2975
S'47d0b7f6-6413-47ba-ab4f-76520ce148e2'
p2976
sS'20140306_07'
p2977
g2974
sS'20140325_07'
p2978
g2972
sS'20140402_08'
p2979
g2956
sS'20140313_07'
p2980
g2921
sS'20140505_06'
p2981
g2976
sS'20140505_09'
p2982
g2944
sS'20140505_08'
p2983
S'47d0b7f6-6413-47ba-ab4f-76520ce148e2'
p2984
sS'20140416_13'
p2985
S'0efd2316-feb9-461c-b102-045aef8e22fe'
p2986
sS'20140416_12'
p2987
g2986
sS'20140416_11'
p2988
S'0efd2316-feb9-461c-b102-045aef8e22fe'
p2989
sS'20140416_10'
p2990
S'0efd2316-feb9-461c-b102-045aef8e22fe'
p2991
ssS'ba91e03a-35c4-4aa1-997e-4109f400234f'
p2992
(dp2993
S'20140522_13'
p2994
S'324f3626-d4c7-4622-bf82-3314cb546cfc'
p2995
sS'20140522_12'
p2996
g2995
sS'20140522_11'
p2997
S'324f3626-d4c7-4622-bf82-3314cb546cfc'
p2998
sS'20140522_10'
p2999
g2998
sS'20140522_06'
p3000
S'324f3626-d4c7-4622-bf82-3314cb546cfc'
p3001
sS'20140522_07'
p3002
g3001
sS'20140522_08'
p3003
S'324f3626-d4c7-4622-bf82-3314cb546cfc'
p3004
sS'20140522_09'
p3005
g3004
sS'20140423_08'
p3006
S'b851ca6c-8885-44a4-96b4-5c93d2975c9a'
p3007
sS'20140423_09'
p3008
g3007
sS'20140423_06'
p3009
S'b851ca6c-8885-44a4-96b4-5c93d2975c9a'
p3010
sS'20140423_07'
p3011
g3010
sS'20140423_13'
p3012
S'b851ca6c-8885-44a4-96b4-5c93d2975c9a'
p3013
sS'20140423_12'
p3014
S'b851ca6c-8885-44a4-96b4-5c93d2975c9a'
p3015
sS'20140423_11'
p3016
S'b851ca6c-8885-44a4-96b4-5c93d2975c9a'
p3017
sS'20140423_10'
p3018
g3017
ssS'22ba09ff-7a69-442a-beb6-e41e51a0f420'
p3019
(dp3020
S'20140514_07'
p3021
S'c0d88b90-e1b4-4bf4-b43d-bf4091346b2c'
p3022
sS'20140514_06'
p3023
S'c0d88b90-e1b4-4bf4-b43d-bf4091346b2c'
p3024
sS'20140514_14'
p3025
S'c0d88b90-e1b4-4bf4-b43d-bf4091346b2c'
p3026
sS'20140514_12'
p3027
g3026
sS'20140514_13'
p3028
g3026
sS'20140514_10'
p3029
S'c0d88b90-e1b4-4bf4-b43d-bf4091346b2c'
p3030
sS'20140514_11'
p3031
S'c0d88b90-e1b4-4bf4-b43d-bf4091346b2c'
p3032
sS'20140514_09'
p3033
g3030
sS'20140514_08'
p3034
g3022
ssS'5096cd46-d97e-4dfc-9c4a-fe54c2e44d59'
p3035
(dp3036
S'20140505_14'
p3037
S'db22b367-f7ba-4070-b582-dd8bbacce9fb'
p3038
sS'20140505_09'
p3039
S'db22b367-f7ba-4070-b582-dd8bbacce9fb'
p3040
sS'20140505_08'
p3041
S'db22b367-f7ba-4070-b582-dd8bbacce9fb'
p3042
sS'20140505_10'
p3043
g3040
sS'20140505_11'
p3044
g3040
sS'20140505_12'
p3045
S'db22b367-f7ba-4070-b582-dd8bbacce9fb'
p3046
sS'20140505_13'
p3047
g3046
sS'20140505_07'
p3048
g3042
sS'20140505_06'
p3049
g3042
ssS'c534895c-3259-4d86-bd6a-fdbfdc36ac73'
p3050
(dp3051
S'20140310_14'
p3052
S'db22b367-f7ba-4070-b582-dd8bbacce9fb'
p3053
sS'20140429_09'
p3054
S'47d0b7f6-6413-47ba-ab4f-76520ce148e2'
p3055
sS'20140305_14'
p3056
S'db22b367-f7ba-4070-b582-dd8bbacce9fb'
p3057
sS'20140305_09'
p3058
S'db22b367-f7ba-4070-b582-dd8bbacce9fb'
p3059
sS'20140430_12'
p3060
S'47d0b7f6-6413-47ba-ab4f-76520ce148e2'
p3061
sS'20140402_09'
p3062
S'324f3626-d4c7-4622-bf82-3314cb546cfc'
p3063
sS'20140423_10'
p3064
S'db22b367-f7ba-4070-b582-dd8bbacce9fb'
p3065
sS'20140429_12'
p3066
S'47d0b7f6-6413-47ba-ab4f-76520ce148e2'
p3067
sS'20140402_08'
p3068
g3063
sS'20140507_12'
p3069
S'47d0b7f6-6413-47ba-ab4f-76520ce148e2'
p3070
sS'20140512_06'
p3071
S'47d0b7f6-6413-47ba-ab4f-76520ce148e2'
p3072
sS'20140507_13'
p3073
g3070
sS'20140429_13'
p3074
g3067
sS'20140305_08'
p3075
g3059
sS'20140402_12'
p3076
S'324f3626-d4c7-4622-bf82-3314cb546cfc'
p3077
sS'20140402_13'
p3078
g3077
sS'20140402_10'
p3079
g3063
sS'20140402_11'
p3080
S'324f3626-d4c7-4622-bf82-3314cb546cfc'
p3081
sS'20140305_07'
p3082
g3059
sS'20140512_09'
p3083
S'47d0b7f6-6413-47ba-ab4f-76520ce148e2'
p3084
sS'20140512_08'
p3085
g3084
sS'20140310_09'
p3086
S'db22b367-f7ba-4070-b582-dd8bbacce9fb'
p3087
sS'20140310_08'
p3088
S'db22b367-f7ba-4070-b582-dd8bbacce9fb'
p3089
sS'20140403_06'
p3090
S'2360f815-dcaa-4ded-9a86-a3b0c9f67450'
p3091
sS'20140403_07'
p3092
g3091
sS'20140310_13'
p3093
S'db22b367-f7ba-4070-b582-dd8bbacce9fb'
p3094
sS'20140403_08'
p3095
S'2360f815-dcaa-4ded-9a86-a3b0c9f67450'
p3096
sS'20140403_09'
p3097
g3096
sS'20140429_11'
p3098
g3067
sS'20140507_10'
p3099
S'47d0b7f6-6413-47ba-ab4f-76520ce148e2'
p3100
sS'20140430_08'
p3101
S'47d0b7f6-6413-47ba-ab4f-76520ce148e2'
p3102
sS'20140514_04'
p3103
S'0efd2316-feb9-461c-b102-045aef8e22fe'
p3104
sS'20140514_07'
p3105
S'0efd2316-feb9-461c-b102-045aef8e22fe'
p3106
sS'20140514_06'
p3107
S'0efd2316-feb9-461c-b102-045aef8e22fe'
p3108
sS'20140514_09'
p3109
S'0efd2316-feb9-461c-b102-045aef8e22fe'
p3110
sS'20140514_08'
p3111
g3110
sS'20140430_06'
p3112
S'47d0b7f6-6413-47ba-ab4f-76520ce148e2'
p3113
sS'20140430_07'
p3114
g3113
sS'20140423_13'
p3115
S'db22b367-f7ba-4070-b582-dd8bbacce9fb'
p3116
sS'20140423_12'
p3117
g3116
sS'20140423_11'
p3118
S'db22b367-f7ba-4070-b582-dd8bbacce9fb'
p3119
sS'20140430_09'
p3120
g3102
sS'20140423_09'
p3121
g3065
sS'20140310_07'
p3122
g3089
sS'20140507_07'
p3123
S'47d0b7f6-6413-47ba-ab4f-76520ce148e2'
p3124
sS'20140507_06'
p3125
g3124
sS'20140310_10'
p3126
g3087
sS'20140429_10'
p3127
g3055
sS'20140305_12'
p3128
S'db22b367-f7ba-4070-b582-dd8bbacce9fb'
p3129
sS'20140507_11'
p3130
g3070
sS'20140305_10'
p3131
S'db22b367-f7ba-4070-b582-dd8bbacce9fb'
p3132
sS'20140305_11'
p3133
S'db22b367-f7ba-4070-b582-dd8bbacce9fb'
p3134
sS'20140512_10'
p3135
S'47d0b7f6-6413-47ba-ab4f-76520ce148e2'
p3136
sS'20140512_11'
p3137
S'47d0b7f6-6413-47ba-ab4f-76520ce148e2'
p3138
sS'20140512_12'
p3139
g3138
sS'20140512_13'
p3140
S'47d0b7f6-6413-47ba-ab4f-76520ce148e2'
p3141
sS'20140429_06'
p3142
S'47d0b7f6-6413-47ba-ab4f-76520ce148e2'
p3143
sS'20140423_07'
p3144
S'db22b367-f7ba-4070-b582-dd8bbacce9fb'
p3145
sS'20140429_07'
p3146
g3143
sS'20140512_07'
p3147
g3072
sS'20140402_07'
p3148
S'324f3626-d4c7-4622-bf82-3314cb546cfc'
p3149
sS'20140402_06'
p3150
g3149
sS'20140305_13'
p3151
g3057
sS'20140403_14'
p3152
S'2360f815-dcaa-4ded-9a86-a3b0c9f67450'
p3153
sS'20140310_11'
p3154
g3094
sS'20140403_11'
p3155
S'2360f815-dcaa-4ded-9a86-a3b0c9f67450'
p3156
sS'20140403_10'
p3157
S'2360f815-dcaa-4ded-9a86-a3b0c9f67450'
p3158
sS'20140403_13'
p3159
g3156
sS'20140403_12'
p3160
g3156
sS'20140423_08'
p3161
S'db22b367-f7ba-4070-b582-dd8bbacce9fb'
p3162
sS'20140514_12'
p3163
S'0efd2316-feb9-461c-b102-045aef8e22fe'
p3164
sS'20140514_13'
p3165
g3164
sS'20140514_10'
p3166
g3110
sS'20140514_11'
p3167
g3164
sS'20140507_09'
p3168
g3100
sS'20140507_08'
p3169
g3124
sS'20140423_06'
p3170
g3145
sS'20140310_12'
p3171
g3094
sS'20140430_13'
p3172
g3061
sS'20140429_08'
p3173
g3055
sS'20140430_11'
p3174
g3061
sS'20140430_10'
p3175
g3102
ssS'9155d209-830b-4a37-86ff-11bb55bed897'
p3176
(dp3177
S'20140331_11'
p3178
S'db22b367-f7ba-4070-b582-dd8bbacce9fb'
p3179
sS'20140331_10'
p3180
g3179
sS'20140331_13'
p3181
S'db22b367-f7ba-4070-b582-dd8bbacce9fb'
p3182
sS'20140331_12'
p3183
g3179
sS'20140331_08'
p3184
S'db22b367-f7ba-4070-b582-dd8bbacce9fb'
p3185
sS'20140331_09'
p3186
g3185
sS'20140331_06'
p3187
S'db22b367-f7ba-4070-b582-dd8bbacce9fb'
p3188
sS'20140331_07'
p3189
g3188
ssS'4fd8f724-4f20-49fc-8280-ee19b25babd2'
p3190
(dp3191
S'20140304_14'
p3192
S'0efd2316-feb9-461c-b102-045aef8e22fe'
p3193
sS'20140304_11'
p3194
S'0efd2316-feb9-461c-b102-045aef8e22fe'
p3195
sS'20140304_10'
p3196
g3195
sS'20140304_13'
p3197
g3193
sS'20140304_12'
p3198
S'0efd2316-feb9-461c-b102-045aef8e22fe'
p3199
sS'20140304_08'
p3200
S'0efd2316-feb9-461c-b102-045aef8e22fe'
p3201
sS'20140304_09'
p3202
g3201
sS'20140304_07'
p3203
S'0efd2316-feb9-461c-b102-045aef8e22fe'
p3204
ssS'183ba061-3e46-4795-a17b-79f3c69e0ad1'
p3205
(dp3206
S'20140508_13'
p3207
S'9482e992-9491-468f-89b0-e9e293406776'
p3208
sS'20140313_07'
p3209
S'9482e992-9491-468f-89b0-e9e293406776'
p3210
sS'20140508_11'
p3211
g3208
sS'20140508_10'
p3212
S'9482e992-9491-468f-89b0-e9e293406776'
p3213
sS'20140313_08'
p3214
g3210
sS'20140313_09'
p3215
S'9482e992-9491-468f-89b0-e9e293406776'
p3216
sS'20140313_11'
p3217
S'9482e992-9491-468f-89b0-e9e293406776'
p3218
sS'20140313_10'
p3219
g3218
sS'20140507_12'
p3220
S'9482e992-9491-468f-89b0-e9e293406776'
p3221
sS'20140507_13'
p3222
S'9482e992-9491-468f-89b0-e9e293406776'
p3223
sS'20140507_10'
p3224
g3221
sS'20140507_11'
p3225
g3221
sS'20140424_12'
p3226
S'fee8a191-c3ca-42fd-b027-65cf73b2bf8c'
p3227
sS'20140424_13'
p3228
g3227
sS'20140424_07'
p3229
S'fee8a191-c3ca-42fd-b027-65cf73b2bf8c'
p3230
sS'20140424_06'
p3231
g3230
sS'20140424_09'
p3232
S'fee8a191-c3ca-42fd-b027-65cf73b2bf8c'
p3233
sS'20140508_06'
p3234
S'9482e992-9491-468f-89b0-e9e293406776'
p3235
sS'20140508_07'
p3236
S'9482e992-9491-468f-89b0-e9e293406776'
p3237
sS'20140424_08'
p3238
S'fee8a191-c3ca-42fd-b027-65cf73b2bf8c'
p3239
sS'20140313_14'
p3240
S'9482e992-9491-468f-89b0-e9e293406776'
p3241
sS'20140508_08'
p3242
S'9482e992-9491-468f-89b0-e9e293406776'
p3243
sS'20140508_09'
p3244
g3243
sS'20140313_13'
p3245
g3241
sS'20140313_12'
p3246
S'9482e992-9491-468f-89b0-e9e293406776'
p3247
sS'20140424_11'
p3248
S'fee8a191-c3ca-42fd-b027-65cf73b2bf8c'
p3249
sS'20140507_07'
p3250
S'9482e992-9491-468f-89b0-e9e293406776'
p3251
sS'20140507_06'
p3252
S'9482e992-9491-468f-89b0-e9e293406776'
p3253
sS'20140507_09'
p3254
S'9482e992-9491-468f-89b0-e9e293406776'
p3255
sS'20140507_08'
p3256
g3255
sS'20140424_10'
p3257
S'fee8a191-c3ca-42fd-b027-65cf73b2bf8c'
p3258
sS'20140508_12'
p3259
g3208
ssS'1c4c5d3e-71cc-4917-9989-51f98bd63e61'
p3260
(dp3261
S'20140307_14'
p3262
S'9482e992-9491-468f-89b0-e9e293406776'
p3263
sS'20140304_14'
p3264
S'db22b367-f7ba-4070-b582-dd8bbacce9fb'
p3265
sS'20140307_10'
p3266
S'9482e992-9491-468f-89b0-e9e293406776'
p3267
sS'20140307_11'
p3268
g3263
sS'20140307_12'
p3269
g3263
sS'20140307_13'
p3270
g3263
sS'20140401_10'
p3271
S'db22b367-f7ba-4070-b582-dd8bbacce9fb'
p3272
sS'20140319_12'
p3273
S'b851ca6c-8885-44a4-96b4-5c93d2975c9a'
p3274
sS'20140304_11'
p3275
S'db22b367-f7ba-4070-b582-dd8bbacce9fb'
p3276
sS'20140401_13'
p3277
S'db22b367-f7ba-4070-b582-dd8bbacce9fb'
p3278
sS'20140319_11'
p3279
S'b851ca6c-8885-44a4-96b4-5c93d2975c9a'
p3280
sS'20140401_11'
p3281
S'db22b367-f7ba-4070-b582-dd8bbacce9fb'
p3282
sS'20140326_14'
p3283
S'db22b367-f7ba-4070-b582-dd8bbacce9fb'
p3284
sS'20140402_12'
p3285
S'2360f815-dcaa-4ded-9a86-a3b0c9f67450'
p3286
sS'20140402_13'
p3287
S'2360f815-dcaa-4ded-9a86-a3b0c9f67450'
p3288
sS'20140402_10'
p3289
S'2360f815-dcaa-4ded-9a86-a3b0c9f67450'
p3290
sS'20140402_11'
p3291
g3286
sS'20140319_10'
p3292
g3280
sS'20140402_14'
p3293
g3288
sS'20140304_10'
p3294
S'db22b367-f7ba-4070-b582-dd8bbacce9fb'
p3295
sS'20140317_11'
p3296
S'b851ca6c-8885-44a4-96b4-5c93d2975c9a'
p3297
sS'20140317_10'
p3298
g3297
sS'20140317_12'
p3299
g3297
sS'20140319_08'
p3300
S'b851ca6c-8885-44a4-96b4-5c93d2975c9a'
p3301
sS'20140319_09'
p3302
g3280
sS'20140327_07'
p3303
S'324f3626-d4c7-4622-bf82-3314cb546cfc'
p3304
sS'20140326_09'
p3305
S'db22b367-f7ba-4070-b582-dd8bbacce9fb'
p3306
sS'20140327_09'
p3307
S'324f3626-d4c7-4622-bf82-3314cb546cfc'
p3308
sS'20140327_08'
p3309
g3308
sS'20140319_06'
p3310
S'b851ca6c-8885-44a4-96b4-5c93d2975c9a'
p3311
sS'20140319_07'
p3312
g3301
sS'20140304_13'
p3313
S'db22b367-f7ba-4070-b582-dd8bbacce9fb'
p3314
sS'20140326_07'
p3315
S'db22b367-f7ba-4070-b582-dd8bbacce9fb'
p3316
sS'20140304_08'
p3317
S'db22b367-f7ba-4070-b582-dd8bbacce9fb'
p3318
sS'20140304_09'
p3319
g3295
sS'20140310_09'
p3320
S'b851ca6c-8885-44a4-96b4-5c93d2975c9a'
p3321
sS'20140310_08'
p3322
g3321
sS'20140310_07'
p3323
g3321
sS'20140304_07'
p3324
S'db22b367-f7ba-4070-b582-dd8bbacce9fb'
p3325
sS'20140307_07'
p3326
S'9482e992-9491-468f-89b0-e9e293406776'
p3327
sS'20140401_12'
p3328
g3278
sS'20140307_09'
p3329
g3267
sS'20140307_08'
p3330
g3327
sS'20140304_12'
p3331
g3314
sS'20140401_07'
p3332
S'db22b367-f7ba-4070-b582-dd8bbacce9fb'
p3333
sS'20140401_08'
p3334
S'db22b367-f7ba-4070-b582-dd8bbacce9fb'
p3335
sS'20140401_09'
p3336
S'db22b367-f7ba-4070-b582-dd8bbacce9fb'
p3337
sS'20140317_06'
p3338
S'b851ca6c-8885-44a4-96b4-5c93d2975c9a'
p3339
sS'20140317_07'
p3340
S'b851ca6c-8885-44a4-96b4-5c93d2975c9a'
p3341
sS'20140402_07'
p3342
S'2360f815-dcaa-4ded-9a86-a3b0c9f67450'
p3343
sS'20140317_05'
p3344
g3339
sS'20140401_06'
p3345
g3333
sS'20140326_08'
p3346
g3316
sS'20140326_11'
p3347
S'db22b367-f7ba-4070-b582-dd8bbacce9fb'
p3348
sS'20140326_10'
p3349
g3306
sS'20140326_13'
p3350
g3284
sS'20140326_12'
p3351
g3348
sS'20140402_09'
p3352
S'2360f815-dcaa-4ded-9a86-a3b0c9f67450'
p3353
sS'20140402_08'
p3354
g3353
sS'20140317_08'
p3355
g3341
sS'20140317_09'
p3356
S'b851ca6c-8885-44a4-96b4-5c93d2975c9a'
p3357
sS'20140319_05'
p3358
g3311
sS'20140310_14'
p3359
S'b851ca6c-8885-44a4-96b4-5c93d2975c9a'
p3360
sS'20140310_10'
p3361
S'b851ca6c-8885-44a4-96b4-5c93d2975c9a'
p3362
sS'20140310_11'
p3363
S'b851ca6c-8885-44a4-96b4-5c93d2975c9a'
p3364
sS'20140310_12'
p3365
g3364
sS'20140310_13'
p3366
g3364
ssS'207e8223-6b19-448d-934b-6e8f0d0a061f'
p3367
(dp3368
S'20140311_14'
p3369
S'b851ca6c-8885-44a4-96b4-5c93d2975c9a'
p3370
sS'20140311_13'
p3371
g3370
sS'20140311_12'
p3372
g3370
sS'20140311_11'
p3373
S'b851ca6c-8885-44a4-96b4-5c93d2975c9a'
p3374
sS'20140311_10'
p3375
S'b851ca6c-8885-44a4-96b4-5c93d2975c9a'
p3376
sS'20140312_11'
p3377
S'b851ca6c-8885-44a4-96b4-5c93d2975c9a'
p3378
sS'20140320_07'
p3379
S'b851ca6c-8885-44a4-96b4-5c93d2975c9a'
p3380
sS'20140515_11'
p3381
S'3da914c6-ab24-435c-aa9f-8facdfc1b5f7'
p3382
sS'20140312_07'
p3383
S'b851ca6c-8885-44a4-96b4-5c93d2975c9a'
p3384
sS'20140422_10'
p3385
S'3da914c6-ab24-435c-aa9f-8facdfc1b5f7'
p3386
sS'20140422_11'
p3387
S'3da914c6-ab24-435c-aa9f-8facdfc1b5f7'
p3388
sS'20140422_12'
p3389
S'3da914c6-ab24-435c-aa9f-8facdfc1b5f7'
p3390
sS'20140422_13'
p3391
g3390
sS'20140320_06'
p3392
g3380
sS'20140320_10'
p3393
S'b851ca6c-8885-44a4-96b4-5c93d2975c9a'
p3394
sS'20140312_09'
p3395
g3384
sS'20140312_08'
p3396
g3384
sS'20140425_11'
p3397
S'3da914c6-ab24-435c-aa9f-8facdfc1b5f7'
p3398
sS'20140415_12'
p3399
S'3da914c6-ab24-435c-aa9f-8facdfc1b5f7'
p3400
sS'20140415_13'
p3401
g3400
sS'20140415_10'
p3402
S'3da914c6-ab24-435c-aa9f-8facdfc1b5f7'
p3403
sS'20140415_11'
p3404
g3400
sS'20140429_06'
p3405
S'3da914c6-ab24-435c-aa9f-8facdfc1b5f7'
p3406
sS'20140429_07'
p3407
g3406
sS'20140415_14'
p3408
g3400
sS'20140429_08'
p3409
S'3da914c6-ab24-435c-aa9f-8facdfc1b5f7'
p3410
sS'20140429_09'
p3411
S'3da914c6-ab24-435c-aa9f-8facdfc1b5f7'
p3412
sS'20140515_06'
p3413
S'3da914c6-ab24-435c-aa9f-8facdfc1b5f7'
p3414
sS'20140320_12'
p3415
g3394
sS'20140320_11'
p3416
g3394
sS'20140515_10'
p3417
S'3da914c6-ab24-435c-aa9f-8facdfc1b5f7'
p3418
sS'20140425_06'
p3419
S'3da914c6-ab24-435c-aa9f-8facdfc1b5f7'
p3420
sS'20140310_09'
p3421
S'324f3626-d4c7-4622-bf82-3314cb546cfc'
p3422
sS'20140310_08'
p3423
S'324f3626-d4c7-4622-bf82-3314cb546cfc'
p3424
sS'20140310_07'
p3425
g3424
sS'20140425_10'
p3426
S'3da914c6-ab24-435c-aa9f-8facdfc1b5f7'
p3427
sS'20140425_13'
p3428
S'3da914c6-ab24-435c-aa9f-8facdfc1b5f7'
p3429
sS'20140425_12'
p3430
g3429
sS'20140320_09'
p3431
g3380
sS'20140311_07'
p3432
S'b851ca6c-8885-44a4-96b4-5c93d2975c9a'
p3433
sS'20140515_08'
p3434
g3414
sS'20140312_12'
p3435
S'b851ca6c-8885-44a4-96b4-5c93d2975c9a'
p3436
sS'20140312_13'
p3437
g3436
sS'20140312_10'
p3438
g3384
sS'20140515_09'
p3439
g3414
sS'20140311_08'
p3440
g3433
sS'20140311_09'
p3441
g3376
sS'20140312_14'
p3442
g3436
sS'20140422_07'
p3443
S'3da914c6-ab24-435c-aa9f-8facdfc1b5f7'
p3444
sS'20140422_06'
p3445
g3444
sS'20140515_07'
p3446
g3414
sS'20140320_08'
p3447
g3380
sS'20140422_09'
p3448
g3386
sS'20140422_08'
p3449
S'3da914c6-ab24-435c-aa9f-8facdfc1b5f7'
p3450
sS'20140522_13'
p3451
S'9482e992-9491-468f-89b0-e9e293406776'
p3452
sS'20140522_12'
p3453
S'9482e992-9491-468f-89b0-e9e293406776'
p3454
sS'20140522_11'
p3455
S'9482e992-9491-468f-89b0-e9e293406776'
p3456
sS'20140415_09'
p3457
g3403
sS'20140415_08'
p3458
g3403
sS'20140320_05'
p3459
g3380
sS'20140415_07'
p3460
S'3da914c6-ab24-435c-aa9f-8facdfc1b5f7'
p3461
sS'20140415_06'
p3462
g3461
sS'20140429_11'
p3463
S'3da914c6-ab24-435c-aa9f-8facdfc1b5f7'
p3464
sS'20140429_10'
p3465
S'3da914c6-ab24-435c-aa9f-8facdfc1b5f7'
p3466
sS'20140429_13'
p3467
S'3da914c6-ab24-435c-aa9f-8facdfc1b5f7'
p3468
sS'20140429_12'
p3469
g3468
sS'20140425_08'
p3470
g3420
sS'20140425_09'
p3471
g3420
sS'20140310_14'
p3472
S'324f3626-d4c7-4622-bf82-3314cb546cfc'
p3473
sS'20140425_07'
p3474
g3420
sS'20140515_13'
p3475
g3382
sS'20140515_12'
p3476
g3382
sS'20140310_10'
p3477
g3422
sS'20140310_11'
p3478
g3422
sS'20140310_12'
p3479
S'324f3626-d4c7-4622-bf82-3314cb546cfc'
p3480
sS'20140310_13'
p3481
g3473
ssS'77062e83-15be-4996-9d97-e34b90600b48'
p3482
(dp3483
S'20140307_14'
p3484
S'fee8a191-c3ca-42fd-b027-65cf73b2bf8c'
p3485
sS'20140304_14'
p3486
S'fee8a191-c3ca-42fd-b027-65cf73b2bf8c'
p3487
sS'20140304_11'
p3488
S'fee8a191-c3ca-42fd-b027-65cf73b2bf8c'
p3489
sS'20140304_10'
p3490
g3489
sS'20140304_13'
p3491
g3487
sS'20140304_12'
p3492
S'fee8a191-c3ca-42fd-b027-65cf73b2bf8c'
p3493
sS'20140312_07'
p3494
S'fee8a191-c3ca-42fd-b027-65cf73b2bf8c'
p3495
sS'20140305_09'
p3496
S'fee8a191-c3ca-42fd-b027-65cf73b2bf8c'
p3497
sS'20140305_08'
p3498
S'fee8a191-c3ca-42fd-b027-65cf73b2bf8c'
p3499
sS'20140307_13'
p3500
g3485
sS'20140307_10'
p3501
S'fee8a191-c3ca-42fd-b027-65cf73b2bf8c'
p3502
sS'20140305_07'
p3503
g3499
sS'20140312_09'
p3504
g3495
sS'20140312_08'
p3505
g3495
sS'20140307_11'
p3506
g3502
sS'20140307_12'
p3507
S'fee8a191-c3ca-42fd-b027-65cf73b2bf8c'
p3508
sS'20140306_14'
p3509
S'fee8a191-c3ca-42fd-b027-65cf73b2bf8c'
p3510
sS'20140306_13'
p3511
g3510
sS'20140306_12'
p3512
g3510
sS'20140306_11'
p3513
g3510
sS'20140306_10'
p3514
S'fee8a191-c3ca-42fd-b027-65cf73b2bf8c'
p3515
sS'20140304_08'
p3516
g3489
sS'20140304_09'
p3517
g3489
sS'20140304_07'
p3518
S'fee8a191-c3ca-42fd-b027-65cf73b2bf8c'
p3519
sS'20140307_07'
p3520
S'fee8a191-c3ca-42fd-b027-65cf73b2bf8c'
p3521
sS'20140312_12'
p3522
S'fee8a191-c3ca-42fd-b027-65cf73b2bf8c'
p3523
sS'20140312_13'
p3524
g3523
sS'20140312_10'
p3525
g3495
sS'20140312_11'
p3526
S'fee8a191-c3ca-42fd-b027-65cf73b2bf8c'
p3527
sS'20140307_09'
p3528
g3521
sS'20140307_08'
p3529
g3521
sS'20140305_12'
p3530
S'fee8a191-c3ca-42fd-b027-65cf73b2bf8c'
p3531
sS'20140305_13'
p3532
S'fee8a191-c3ca-42fd-b027-65cf73b2bf8c'
p3533
sS'20140305_10'
p3534
g3531
sS'20140305_11'
p3535
g3531
sS'20140312_14'
p3536
g3523
sS'20140305_14'
p3537
S'fee8a191-c3ca-42fd-b027-65cf73b2bf8c'
p3538
sS'20140306_08'
p3539
g3515
sS'20140306_09'
p3540
g3515
sS'20140306_07'
p3541
g3515
ssS'96915c5f-f811-433d-85d6-f098b352c49e'
p3542
(dp3543
S'20140307_14'
p3544
S'c0d88b90-e1b4-4bf4-b43d-bf4091346b2c'
p3545
sS'20140318_06'
p3546
S'fee8a191-c3ca-42fd-b027-65cf73b2bf8c'
p3547
sS'20140318_05'
p3548
g3547
sS'20140311_14'
p3549
S'fee8a191-c3ca-42fd-b027-65cf73b2bf8c'
p3550
sS'20140307_10'
p3551
S'c0d88b90-e1b4-4bf4-b43d-bf4091346b2c'
p3552
sS'20140307_11'
p3553
g3552
sS'20140307_12'
p3554
S'c0d88b90-e1b4-4bf4-b43d-bf4091346b2c'
p3555
sS'20140307_13'
p3556
g3545
sS'20140321_11'
p3557
S'fee8a191-c3ca-42fd-b027-65cf73b2bf8c'
p3558
sS'20140328_09'
p3559
S'fee8a191-c3ca-42fd-b027-65cf73b2bf8c'
p3560
sS'20140318_09'
p3561
S'fee8a191-c3ca-42fd-b027-65cf73b2bf8c'
p3562
sS'20140318_08'
p3563
S'fee8a191-c3ca-42fd-b027-65cf73b2bf8c'
p3564
sS'20140328_12'
p3565
S'fee8a191-c3ca-42fd-b027-65cf73b2bf8c'
p3566
sS'20140328_07'
p3567
S'fee8a191-c3ca-42fd-b027-65cf73b2bf8c'
p3568
sS'20140408_10'
p3569
S'b851ca6c-8885-44a4-96b4-5c93d2975c9a'
p3570
sS'20140408_11'
p3571
g3570
sS'20140408_12'
p3572
S'b851ca6c-8885-44a4-96b4-5c93d2975c9a'
p3573
sS'20140408_13'
p3574
S'b851ca6c-8885-44a4-96b4-5c93d2975c9a'
p3575
sS'20140428_12'
p3576
S'b851ca6c-8885-44a4-96b4-5c93d2975c9a'
p3577
sS'20140428_13'
p3578
S'b851ca6c-8885-44a4-96b4-5c93d2975c9a'
p3579
sS'20140428_10'
p3580
S'b851ca6c-8885-44a4-96b4-5c93d2975c9a'
p3581
sS'20140428_11'
p3582
g3577
sS'20140311_12'
p3583
S'fee8a191-c3ca-42fd-b027-65cf73b2bf8c'
p3584
sS'20140328_11'
p3585
S'fee8a191-c3ca-42fd-b027-65cf73b2bf8c'
p3586
sS'20140311_11'
p3587
S'fee8a191-c3ca-42fd-b027-65cf73b2bf8c'
p3588
sS'20140328_14'
p3589
g3566
sS'20140321_12'
p3590
S'fee8a191-c3ca-42fd-b027-65cf73b2bf8c'
p3591
sS'20140311_10'
p3592
g3588
sS'20140515_08'
p3593
S'c0d88b90-e1b4-4bf4-b43d-bf4091346b2c'
p3594
sS'20140515_09'
p3595
g3594
sS'20140515_06'
p3596
S'c0d88b90-e1b4-4bf4-b43d-bf4091346b2c'
p3597
sS'20140515_07'
p3598
g3597
sS'20140321_07'
p3599
S'fee8a191-c3ca-42fd-b027-65cf73b2bf8c'
p3600
sS'20140321_06'
p3601
S'fee8a191-c3ca-42fd-b027-65cf73b2bf8c'
p3602
sS'20140321_05'
p3603
g3602
sS'20140311_07'
p3604
S'fee8a191-c3ca-42fd-b027-65cf73b2bf8c'
p3605
sS'20140318_10'
p3606
g3562
sS'20140318_11'
p3607
g3562
sS'20140318_12'
p3608
S'fee8a191-c3ca-42fd-b027-65cf73b2bf8c'
p3609
sS'20140328_10'
p3610
g3586
sS'20140321_13'
p3611
S'fee8a191-c3ca-42fd-b027-65cf73b2bf8c'
p3612
sS'20140328_08'
p3613
g3560
sS'20140311_08'
p3614
S'fee8a191-c3ca-42fd-b027-65cf73b2bf8c'
p3615
sS'20140311_09'
p3616
g3588
sS'20140307_09'
p3617
S'c0d88b90-e1b4-4bf4-b43d-bf4091346b2c'
p3618
sS'20140321_08'
p3619
g3600
sS'20140408_07'
p3620
S'b851ca6c-8885-44a4-96b4-5c93d2975c9a'
p3621
sS'20140408_06'
p3622
S'b851ca6c-8885-44a4-96b4-5c93d2975c9a'
p3623
sS'20140321_09'
p3624
g3600
sS'20140311_13'
p3625
g3550
sS'20140408_09'
p3626
S'b851ca6c-8885-44a4-96b4-5c93d2975c9a'
p3627
sS'20140408_08'
p3628
g3627
sS'20140428_07'
p3629
S'b851ca6c-8885-44a4-96b4-5c93d2975c9a'
p3630
sS'20140428_06'
p3631
g3630
sS'20140428_09'
p3632
g3581
sS'20140428_08'
p3633
S'b851ca6c-8885-44a4-96b4-5c93d2975c9a'
p3634
sS'20140321_10'
p3635
g3558
sS'20140318_07'
p3636
g3564
sS'20140328_13'
p3637
g3566
sS'20140515_11'
p3638
S'c0d88b90-e1b4-4bf4-b43d-bf4091346b2c'
p3639
sS'20140515_10'
p3640
g3594
sS'20140515_13'
p3641
g3639
sS'20140515_12'
p3642
g3639
sS'20140515_14'
p3643
g3639
ssS'2e0a9026-6115-41ca-9220-935347122a3d'
p3644
(dp3645
S'20140307_14'
p3646
S'db22b367-f7ba-4070-b582-dd8bbacce9fb'
p3647
sS'20140307_10'
p3648
S'db22b367-f7ba-4070-b582-dd8bbacce9fb'
p3649
sS'20140307_11'
p3650
S'db22b367-f7ba-4070-b582-dd8bbacce9fb'
p3651
sS'20140307_12'
p3652
g3651
sS'20140307_13'
p3653
g3647
sS'20140509_10'
p3654
S'47d0b7f6-6413-47ba-ab4f-76520ce148e2'
p3655
sS'20140509_11'
p3656
S'47d0b7f6-6413-47ba-ab4f-76520ce148e2'
p3657
sS'20140509_12'
p3658
g3657
sS'20140509_13'
p3659
g3657
sS'20140303_10'
p3660
S'9482e992-9491-468f-89b0-e9e293406776'
p3661
sS'20140303_11'
p3662
S'9482e992-9491-468f-89b0-e9e293406776'
p3663
sS'20140303_12'
p3664
g3663
sS'20140303_13'
p3665
S'9482e992-9491-468f-89b0-e9e293406776'
p3666
sS'20140303_14'
p3667
S'9482e992-9491-468f-89b0-e9e293406776'
p3668
sS'20140307_07'
p3669
S'db22b367-f7ba-4070-b582-dd8bbacce9fb'
p3670
sS'20140509_09'
p3671
S'47d0b7f6-6413-47ba-ab4f-76520ce148e2'
p3672
sS'20140509_08'
p3673
S'47d0b7f6-6413-47ba-ab4f-76520ce148e2'
p3674
sS'20140509_07'
p3675
S'47d0b7f6-6413-47ba-ab4f-76520ce148e2'
p3676
sS'20140509_06'
p3677
g3676
sS'20140307_09'
p3678
g3649
sS'20140307_08'
p3679
g3670
sS'20140303_09'
p3680
S'9482e992-9491-468f-89b0-e9e293406776'
p3681
sS'20140303_08'
p3682
g3681
sS'20140303_07'
p3683
S'9482e992-9491-468f-89b0-e9e293406776'
p3684
ssS'8f3aee76-a7e0-4810-8564-11fc19565d03'
p3685
(dp3686
S'20140424_14'
p3687
S'c0d88b90-e1b4-4bf4-b43d-bf4091346b2c'
p3688
sS'20140424_12'
p3689
S'c0d88b90-e1b4-4bf4-b43d-bf4091346b2c'
p3690
sS'20140424_13'
p3691
g3688
sS'20140424_10'
p3692
S'c0d88b90-e1b4-4bf4-b43d-bf4091346b2c'
p3693
sS'20140424_11'
p3694
g3693
sS'20140509_09'
p3695
S'fee8a191-c3ca-42fd-b027-65cf73b2bf8c'
p3696
sS'20140509_08'
p3697
S'fee8a191-c3ca-42fd-b027-65cf73b2bf8c'
p3698
sS'20140509_07'
p3699
S'fee8a191-c3ca-42fd-b027-65cf73b2bf8c'
p3700
sS'20140509_06'
p3701
g3700
sS'20140417_14'
p3702
S'c0d88b90-e1b4-4bf4-b43d-bf4091346b2c'
p3703
sS'20140417_15'
p3704
g3703
sS'20140417_16'
p3705
g3703
sS'20140417_17'
p3706
g3703
sS'20140417_10'
p3707
S'c0d88b90-e1b4-4bf4-b43d-bf4091346b2c'
p3708
sS'20140417_11'
p3709
g3708
sS'20140417_12'
p3710
g3708
sS'20140417_13'
p3711
S'c0d88b90-e1b4-4bf4-b43d-bf4091346b2c'
p3712
sS'20140407_11'
p3713
S'324f3626-d4c7-4622-bf82-3314cb546cfc'
p3714
sS'20140407_10'
p3715
S'324f3626-d4c7-4622-bf82-3314cb546cfc'
p3716
sS'20140407_13'
p3717
S'324f3626-d4c7-4622-bf82-3314cb546cfc'
p3718
sS'20140407_12'
p3719
S'324f3626-d4c7-4622-bf82-3314cb546cfc'
p3720
sS'20140407_14'
p3721
g3718
sS'20140326_13'
p3722
S'b851ca6c-8885-44a4-96b4-5c93d2975c9a'
p3723
sS'20140314_08'
p3724
S'0efd2316-feb9-461c-b102-045aef8e22fe'
p3725
sS'20140509_10'
p3726
S'fee8a191-c3ca-42fd-b027-65cf73b2bf8c'
p3727
sS'20140509_11'
p3728
S'fee8a191-c3ca-42fd-b027-65cf73b2bf8c'
p3729
sS'20140509_12'
p3730
g3729
sS'20140326_14'
p3731
S'b851ca6c-8885-44a4-96b4-5c93d2975c9a'
p3732
sS'20140407_06'
p3733
S'324f3626-d4c7-4622-bf82-3314cb546cfc'
p3734
sS'20140407_07'
p3735
g3734
sS'20140404_14'
p3736
S'324f3626-d4c7-4622-bf82-3314cb546cfc'
p3737
sS'20140407_08'
p3738
S'324f3626-d4c7-4622-bf82-3314cb546cfc'
p3739
sS'20140407_09'
p3740
g3739
sS'20140516_13'
p3741
S'fee8a191-c3ca-42fd-b027-65cf73b2bf8c'
p3742
sS'20140516_12'
p3743
g3742
sS'20140430_14'
p3744
S'c0d88b90-e1b4-4bf4-b43d-bf4091346b2c'
p3745
sS'20140508_05'
p3746
S'db22b367-f7ba-4070-b582-dd8bbacce9fb'
p3747
sS'20140312_07'
p3748
S'324f3626-d4c7-4622-bf82-3314cb546cfc'
p3749
sS'20140312_09'
p3750
S'324f3626-d4c7-4622-bf82-3314cb546cfc'
p3751
sS'20140312_08'
p3752
g3749
sS'20140516_09'
p3753
S'fee8a191-c3ca-42fd-b027-65cf73b2bf8c'
p3754
sS'20140516_08'
p3755
g3754
sS'20140404_07'
p3756
S'324f3626-d4c7-4622-bf82-3314cb546cfc'
p3757
sS'20140404_06'
p3758
g3757
sS'20140404_09'
p3759
S'324f3626-d4c7-4622-bf82-3314cb546cfc'
p3760
sS'20140404_08'
p3761
S'324f3626-d4c7-4622-bf82-3314cb546cfc'
p3762
sS'20140409_13'
p3763
S'db22b367-f7ba-4070-b582-dd8bbacce9fb'
p3764
sS'20140409_12'
p3765
g3764
sS'20140409_11'
p3766
S'db22b367-f7ba-4070-b582-dd8bbacce9fb'
p3767
sS'20140409_10'
p3768
S'db22b367-f7ba-4070-b582-dd8bbacce9fb'
p3769
sS'20140312_12'
p3770
S'324f3626-d4c7-4622-bf82-3314cb546cfc'
p3771
sS'20140312_13'
p3772
g3771
sS'20140312_10'
p3773
g3751
sS'20140312_11'
p3774
g3751
sS'20140312_14'
p3775
g3771
sS'20140516_07'
p3776
g3754
sS'20140509_13'
p3777
g3729
sS'20140402_07'
p3778
S'db22b367-f7ba-4070-b582-dd8bbacce9fb'
p3779
sS'20140402_06'
p3780
g3779
sS'20140314_07'
p3781
g3725
sS'20140326_11'
p3782
S'b851ca6c-8885-44a4-96b4-5c93d2975c9a'
p3783
sS'20140326_10'
p3784
S'b851ca6c-8885-44a4-96b4-5c93d2975c9a'
p3785
sS'20140314_09'
p3786
S'0efd2316-feb9-461c-b102-045aef8e22fe'
p3787
sS'20140326_12'
p3788
g3783
sS'20140402_09'
p3789
S'db22b367-f7ba-4070-b582-dd8bbacce9fb'
p3790
sS'20140402_08'
p3791
S'db22b367-f7ba-4070-b582-dd8bbacce9fb'
p3792
sS'20140516_06'
p3793
g3754
sS'20140404_10'
p3794
g3760
sS'20140404_11'
p3795
g3760
sS'20140404_12'
p3796
S'324f3626-d4c7-4622-bf82-3314cb546cfc'
p3797
sS'20140404_13'
p3798
g3737
sS'20140409_08'
p3799
S'db22b367-f7ba-4070-b582-dd8bbacce9fb'
p3800
sS'20140409_09'
p3801
g3769
sS'20140516_10'
p3802
g3754
sS'20140516_11'
p3803
g3742
sS'20140409_06'
p3804
S'db22b367-f7ba-4070-b582-dd8bbacce9fb'
p3805
sS'20140409_07'
p3806
S'db22b367-f7ba-4070-b582-dd8bbacce9fb'
p3807
sS'20140430_13'
p3808
g3745
sS'20140430_12'
p3809
S'c0d88b90-e1b4-4bf4-b43d-bf4091346b2c'
p3810
sS'20140430_11'
p3811
S'c0d88b90-e1b4-4bf4-b43d-bf4091346b2c'
p3812
sS'20140430_10'
p3813
g3812
sS'20140508_13'
p3814
S'db22b367-f7ba-4070-b582-dd8bbacce9fb'
p3815
sS'20140508_12'
p3816
S'db22b367-f7ba-4070-b582-dd8bbacce9fb'
p3817
sS'20140508_11'
p3818
g3817
sS'20140508_10'
p3819
S'db22b367-f7ba-4070-b582-dd8bbacce9fb'
p3820
sS'20140402_12'
p3821
S'db22b367-f7ba-4070-b582-dd8bbacce9fb'
p3822
sS'20140402_13'
p3823
S'db22b367-f7ba-4070-b582-dd8bbacce9fb'
p3824
sS'20140402_10'
p3825
S'db22b367-f7ba-4070-b582-dd8bbacce9fb'
p3826
sS'20140402_11'
p3827
g3826
sS'20140314_10'
p3828
g3787
sS'20140314_11'
p3829
g3787
sS'20140314_12'
p3830
S'0efd2316-feb9-461c-b102-045aef8e22fe'
p3831
sS'20140314_13'
p3832
g3831
sS'20140314_14'
p3833
S'0efd2316-feb9-461c-b102-045aef8e22fe'
p3834
sS'20140326_08'
p3835
S'b851ca6c-8885-44a4-96b4-5c93d2975c9a'
p3836
sS'20140326_09'
p3837
g3785
sS'20140326_07'
p3838
g3836
sS'20140430_08'
p3839
S'c0d88b90-e1b4-4bf4-b43d-bf4091346b2c'
p3840
sS'20140430_09'
p3841
g3840
sS'20140520_11'
p3842
S'c0d88b90-e1b4-4bf4-b43d-bf4091346b2c'
p3843
sS'20140520_10'
p3844
S'c0d88b90-e1b4-4bf4-b43d-bf4091346b2c'
p3845
sS'20140430_06'
p3846
g3840
sS'20140430_07'
p3847
g3840
sS'20140424_07'
p3848
S'c0d88b90-e1b4-4bf4-b43d-bf4091346b2c'
p3849
sS'20140424_09'
p3850
g3849
sS'20140508_06'
p3851
g3747
sS'20140508_07'
p3852
g3820
sS'20140424_08'
p3853
g3849
sS'20140508_08'
p3854
g3820
sS'20140508_09'
p3855
g3820
sS'20140520_08'
p3856
g3845
sS'20140520_09'
p3857
g3845
sS'20140520_06'
p3858
S'c0d88b90-e1b4-4bf4-b43d-bf4091346b2c'
p3859
sS'20140520_07'
p3860
g3859
ssS'b3e2692e-719a-4c84-bc9b-e6de66397868'
p3861
(dp3862
S'20140506_12'
p3863
S'db22b367-f7ba-4070-b582-dd8bbacce9fb'
p3864
sS'20140424_07'
p3865
S'db22b367-f7ba-4070-b582-dd8bbacce9fb'
p3866
sS'20140506_11'
p3867
g3864
sS'20140506_10'
p3868
S'db22b367-f7ba-4070-b582-dd8bbacce9fb'
p3869
sS'20140424_06'
p3870
g3866
sS'20140506_06'
p3871
S'db22b367-f7ba-4070-b582-dd8bbacce9fb'
p3872
sS'20140424_12'
p3873
S'db22b367-f7ba-4070-b582-dd8bbacce9fb'
p3874
sS'20140424_13'
p3875
g3874
sS'20140424_10'
p3876
S'db22b367-f7ba-4070-b582-dd8bbacce9fb'
p3877
sS'20140424_11'
p3878
S'db22b367-f7ba-4070-b582-dd8bbacce9fb'
p3879
sS'20140424_09'
p3880
S'db22b367-f7ba-4070-b582-dd8bbacce9fb'
p3881
sS'20140424_08'
p3882
S'db22b367-f7ba-4070-b582-dd8bbacce9fb'
p3883
sS'20140506_13'
p3884
g3864
sS'20140506_09'
p3885
g3869
sS'20140506_08'
p3886
S'db22b367-f7ba-4070-b582-dd8bbacce9fb'
p3887
sS'20140506_07'
p3888
g3872
ssS'225e3d35-e859-4fa0-9801-2ed78c3ebe35'
p3889
(dp3890
S'20140514_06'
p3891
S'9482e992-9491-468f-89b0-e9e293406776'
p3892
sS'20140514_11'
p3893
S'9482e992-9491-468f-89b0-e9e293406776'
p3894
sS'20140408_11'
p3895
S'3da914c6-ab24-435c-aa9f-8facdfc1b5f7'
p3896
sS'20140408_12'
p3897
g3896
sS'20140408_13'
p3898
S'3da914c6-ab24-435c-aa9f-8facdfc1b5f7'
p3899
sS'20140514_09'
p3900
S'9482e992-9491-468f-89b0-e9e293406776'
p3901
sS'20140416_08'
p3902
S'3da914c6-ab24-435c-aa9f-8facdfc1b5f7'
p3903
sS'20140416_09'
p3904
S'3da914c6-ab24-435c-aa9f-8facdfc1b5f7'
p3905
sS'20140411_07'
p3906
S'324f3626-d4c7-4622-bf82-3314cb546cfc'
p3907
sS'20140411_06'
p3908
S'324f3626-d4c7-4622-bf82-3314cb546cfc'
p3909
sS'20140411_09'
p3910
S'324f3626-d4c7-4622-bf82-3314cb546cfc'
p3911
sS'20140411_08'
p3912
S'324f3626-d4c7-4622-bf82-3314cb546cfc'
p3913
sS'20140416_06'
p3914
S'3da914c6-ab24-435c-aa9f-8facdfc1b5f7'
p3915
sS'20140416_07'
p3916
S'3da914c6-ab24-435c-aa9f-8facdfc1b5f7'
p3917
sS'20140514_08'
p3918
g3892
sS'20140514_13'
p3919
S'9482e992-9491-468f-89b0-e9e293406776'
p3920
sS'20140514_12'
p3921
g3894
sS'20140411_10'
p3922
g3911
sS'20140520_09'
p3923
S'3da914c6-ab24-435c-aa9f-8facdfc1b5f7'
p3924
sS'20140520_11'
p3925
S'3da914c6-ab24-435c-aa9f-8facdfc1b5f7'
p3926
sS'20140520_10'
p3927
g3924
sS'20140514_07'
p3928
g3892
sS'20140514_10'
p3929
g3901
sS'20140411_12'
p3930
S'324f3626-d4c7-4622-bf82-3314cb546cfc'
p3931
sS'20140411_13'
p3932
S'324f3626-d4c7-4622-bf82-3314cb546cfc'
p3933
sS'20140520_08'
p3934
g3924
sS'20140411_11'
p3935
S'324f3626-d4c7-4622-bf82-3314cb546cfc'
p3936
sS'20140520_06'
p3937
S'3da914c6-ab24-435c-aa9f-8facdfc1b5f7'
p3938
sS'20140520_07'
p3939
S'3da914c6-ab24-435c-aa9f-8facdfc1b5f7'
p3940
sS'20140416_13'
p3941
S'3da914c6-ab24-435c-aa9f-8facdfc1b5f7'
p3942
sS'20140416_12'
p3943
g3942
sS'20140416_11'
p3944
S'3da914c6-ab24-435c-aa9f-8facdfc1b5f7'
p3945
sS'20140416_10'
p3946
S'3da914c6-ab24-435c-aa9f-8facdfc1b5f7'
p3947
ssS'a8c46600-df29-43cc-a90a-55f34eac2e40'
p3948
(dp3949
S'20140509_10'
p3950
S'3da914c6-ab24-435c-aa9f-8facdfc1b5f7'
p3951
sS'20140509_11'
p3952
S'3da914c6-ab24-435c-aa9f-8facdfc1b5f7'
p3953
sS'20140509_12'
p3954
g3953
sS'20140509_13'
p3955
g3953
sS'20140417_07'
p3956
S'b851ca6c-8885-44a4-96b4-5c93d2975c9a'
p3957
sS'20140417_06'
p3958
S'b851ca6c-8885-44a4-96b4-5c93d2975c9a'
p3959
sS'20140417_09'
p3960
S'b851ca6c-8885-44a4-96b4-5c93d2975c9a'
p3961
sS'20140417_08'
p3962
S'b851ca6c-8885-44a4-96b4-5c93d2975c9a'
p3963
sS'20140411_07'
p3964
S'2360f815-dcaa-4ded-9a86-a3b0c9f67450'
p3965
sS'20140411_09'
p3966
S'2360f815-dcaa-4ded-9a86-a3b0c9f67450'
p3967
sS'20140411_08'
p3968
g3965
sS'20140509_09'
p3969
S'3da914c6-ab24-435c-aa9f-8facdfc1b5f7'
p3970
sS'20140509_08'
p3971
S'3da914c6-ab24-435c-aa9f-8facdfc1b5f7'
p3972
sS'20140509_07'
p3973
S'3da914c6-ab24-435c-aa9f-8facdfc1b5f7'
p3974
sS'20140509_06'
p3975
S'3da914c6-ab24-435c-aa9f-8facdfc1b5f7'
p3976
sS'20140417_10'
p3977
g3961
sS'20140417_11'
p3978
S'b851ca6c-8885-44a4-96b4-5c93d2975c9a'
p3979
sS'20140417_12'
p3980
S'b851ca6c-8885-44a4-96b4-5c93d2975c9a'
p3981
sS'20140417_13'
p3982
S'b851ca6c-8885-44a4-96b4-5c93d2975c9a'
p3983
sS'20140411_14'
p3984
S'2360f815-dcaa-4ded-9a86-a3b0c9f67450'
p3985
sS'20140411_12'
p3986
S'2360f815-dcaa-4ded-9a86-a3b0c9f67450'
p3987
sS'20140411_13'
p3988
S'2360f815-dcaa-4ded-9a86-a3b0c9f67450'
p3989
sS'20140411_10'
p3990
S'2360f815-dcaa-4ded-9a86-a3b0c9f67450'
p3991
sS'20140411_11'
p3992
g3987
ssS'1cbf3451-435c-439a-aefe-90a100511666'
p3993
(dp3994
S'20140328_07'
p3995
S'9482e992-9491-468f-89b0-e9e293406776'
p3996
sS'20140428_09'
p3997
S'fee8a191-c3ca-42fd-b027-65cf73b2bf8c'
p3998
sS'20140325_07'
p3999
S'fee8a191-c3ca-42fd-b027-65cf73b2bf8c'
p4000
sS'20140328_08'
p4001
S'9482e992-9491-468f-89b0-e9e293406776'
p4002
sS'20140328_09'
p4003
S'9482e992-9491-468f-89b0-e9e293406776'
p4004
sS'20140428_08'
p4005
g3998
sS'20140515_11'
p4006
S'fee8a191-c3ca-42fd-b027-65cf73b2bf8c'
p4007
sS'20140428_12'
p4008
S'fee8a191-c3ca-42fd-b027-65cf73b2bf8c'
p4009
sS'20140428_13'
p4010
g4009
sS'20140428_10'
p4011
S'fee8a191-c3ca-42fd-b027-65cf73b2bf8c'
p4012
sS'20140325_14'
p4013
S'fee8a191-c3ca-42fd-b027-65cf73b2bf8c'
p4014
sS'20140428_11'
p4015
g4012
sS'20140326_08'
p4016
S'0efd2316-feb9-461c-b102-045aef8e22fe'
p4017
sS'20140326_09'
p4018
S'0efd2316-feb9-461c-b102-045aef8e22fe'
p4019
sS'20140303_10'
p4020
S'fee8a191-c3ca-42fd-b027-65cf73b2bf8c'
p4021
sS'20140303_11'
p4022
g4021
sS'20140303_12'
p4023
S'fee8a191-c3ca-42fd-b027-65cf73b2bf8c'
p4024
sS'20140303_13'
p4025
g4024
sS'20140303_14'
p4026
S'fee8a191-c3ca-42fd-b027-65cf73b2bf8c'
p4027
sS'20140515_10'
p4028
S'fee8a191-c3ca-42fd-b027-65cf73b2bf8c'
p4029
sS'20140404_07'
p4030
S'fee8a191-c3ca-42fd-b027-65cf73b2bf8c'
p4031
sS'20140404_06'
p4032
g4031
sS'20140515_08'
p4033
S'fee8a191-c3ca-42fd-b027-65cf73b2bf8c'
p4034
sS'20140515_09'
p4035
g4029
sS'20140425_11'
p4036
S'fee8a191-c3ca-42fd-b027-65cf73b2bf8c'
p4037
sS'20140425_10'
p4038
g4037
sS'20140425_13'
p4039
S'fee8a191-c3ca-42fd-b027-65cf73b2bf8c'
p4040
sS'20140425_12'
p4041
S'fee8a191-c3ca-42fd-b027-65cf73b2bf8c'
p4042
sS'20140428_06'
p4043
S'fee8a191-c3ca-42fd-b027-65cf73b2bf8c'
p4044
sS'20140325_11'
p4045
S'fee8a191-c3ca-42fd-b027-65cf73b2bf8c'
p4046
sS'20140328_14'
p4047
S'9482e992-9491-468f-89b0-e9e293406776'
p4048
sS'20140328_13'
p4049
g4048
sS'20140328_12'
p4050
g4048
sS'20140328_11'
p4051
S'9482e992-9491-468f-89b0-e9e293406776'
p4052
sS'20140328_10'
p4053
g4052
sS'20140425_09'
p4054
g4037
sS'20140325_13'
p4055
g4014
sS'20140325_09'
p4056
g4046
sS'20140515_06'
p4057
S'fee8a191-c3ca-42fd-b027-65cf73b2bf8c'
p4058
sS'20140325_08'
p4059
g4000
sS'20140515_07'
p4060
g4058
sS'20140428_07'
p4061
S'fee8a191-c3ca-42fd-b027-65cf73b2bf8c'
p4062
sS'20140303_09'
p4063
S'fee8a191-c3ca-42fd-b027-65cf73b2bf8c'
p4064
sS'20140303_08'
p4065
S'fee8a191-c3ca-42fd-b027-65cf73b2bf8c'
p4066
sS'20140326_10'
p4067
g4019
sS'20140326_13'
p4068
S'0efd2316-feb9-461c-b102-045aef8e22fe'
p4069
sS'20140326_12'
p4070
g4069
sS'20140303_07'
p4071
S'fee8a191-c3ca-42fd-b027-65cf73b2bf8c'
p4072
sS'20140326_14'
p4073
g4069
sS'20140319_10'
p4074
S'324f3626-d4c7-4622-bf82-3314cb546cfc'
p4075
sS'20140404_10'
p4076
S'fee8a191-c3ca-42fd-b027-65cf73b2bf8c'
p4077
sS'20140325_10'
p4078
g4046
sS'20140404_12'
p4079
g4077
sS'20140404_13'
p4080
g4077
sS'20140425_08'
p4081
g4037
sS'20140326_07'
p4082
g4017
sS'20140425_06'
p4083
S'fee8a191-c3ca-42fd-b027-65cf73b2bf8c'
p4084
sS'20140425_07'
p4085
g4084
sS'20140515_13'
p4086
S'fee8a191-c3ca-42fd-b027-65cf73b2bf8c'
p4087
sS'20140515_12'
p4088
g4007
sS'20140325_12'
p4089
S'fee8a191-c3ca-42fd-b027-65cf73b2bf8c'
p4090
sS'20140404_11'
p4091
g4077
ssS'1041c179-bb8f-487a-b6a5-758ed62f3ee9'
p4092
(dp4093
S'20140507_07'
p4094
S'fee8a191-c3ca-42fd-b027-65cf73b2bf8c'
p4095
sS'20140507_06'
p4096
g4095
sS'20140507_14'
p4097
S'fee8a191-c3ca-42fd-b027-65cf73b2bf8c'
p4098
sS'20140507_12'
p4099
g4098
sS'20140507_13'
p4100
g4098
sS'20140507_10'
p4101
S'fee8a191-c3ca-42fd-b027-65cf73b2bf8c'
p4102
sS'20140507_11'
p4103
S'fee8a191-c3ca-42fd-b027-65cf73b2bf8c'
p4104
sS'20140507_09'
p4105
g4102
sS'20140507_08'
p4106
g4095
ssS'4c548bc3-7b90-41d9-9a56-05989b48ec5d'
p4107
(dp4108
S'20140416_08'
p4109
S'fee8a191-c3ca-42fd-b027-65cf73b2bf8c'
p4110
sS'20140416_09'
p4111
S'fee8a191-c3ca-42fd-b027-65cf73b2bf8c'
p4112
sS'20140416_06'
p4113
S'fee8a191-c3ca-42fd-b027-65cf73b2bf8c'
p4114
sS'20140416_07'
p4115
g4114
sS'20140416_13'
p4116
S'fee8a191-c3ca-42fd-b027-65cf73b2bf8c'
p4117
sS'20140416_12'
p4118
g4117
sS'20140416_11'
p4119
S'fee8a191-c3ca-42fd-b027-65cf73b2bf8c'
p4120
sS'20140416_10'
p4121
S'fee8a191-c3ca-42fd-b027-65cf73b2bf8c'
p4122
ssS'c1b455d3-2e0d-4266-a10c-aa3467fb8c5c'
p4123
(dp4124
S'20140307_14'
p4125
S'324f3626-d4c7-4622-bf82-3314cb546cfc'
p4126
sS'20140307_10'
p4127
S'324f3626-d4c7-4622-bf82-3314cb546cfc'
p4128
sS'20140307_11'
p4129
S'324f3626-d4c7-4622-bf82-3314cb546cfc'
p4130
sS'20140307_12'
p4131
g4130
sS'20140307_13'
p4132
g4126
sS'20140305_09'
p4133
S'324f3626-d4c7-4622-bf82-3314cb546cfc'
p4134
sS'20140305_08'
p4135
S'324f3626-d4c7-4622-bf82-3314cb546cfc'
p4136
sS'20140305_07'
p4137
g4136
sS'20140306_14'
p4138
S'324f3626-d4c7-4622-bf82-3314cb546cfc'
p4139
sS'20140306_13'
p4140
g4139
sS'20140306_12'
p4141
S'324f3626-d4c7-4622-bf82-3314cb546cfc'
p4142
sS'20140306_11'
p4143
S'324f3626-d4c7-4622-bf82-3314cb546cfc'
p4144
sS'20140306_10'
p4145
S'324f3626-d4c7-4622-bf82-3314cb546cfc'
p4146
sS'20140307_07'
p4147
S'324f3626-d4c7-4622-bf82-3314cb546cfc'
p4148
sS'20140307_09'
p4149
S'324f3626-d4c7-4622-bf82-3314cb546cfc'
p4150
sS'20140307_08'
p4151
g4148
sS'20140305_12'
p4152
S'324f3626-d4c7-4622-bf82-3314cb546cfc'
p4153
sS'20140305_13'
p4154
S'324f3626-d4c7-4622-bf82-3314cb546cfc'
p4155
sS'20140305_10'
p4156
g4134
sS'20140305_11'
p4157
S'324f3626-d4c7-4622-bf82-3314cb546cfc'
p4158
sS'20140305_14'
p4159
S'324f3626-d4c7-4622-bf82-3314cb546cfc'
p4160
sS'20140306_08'
p4161
S'324f3626-d4c7-4622-bf82-3314cb546cfc'
p4162
sS'20140306_09'
p4163
S'324f3626-d4c7-4622-bf82-3314cb546cfc'
p4164
sS'20140306_07'
p4165
g4162
ssS'71ae2fb2-bb25-425a-a6a6-109bed987d43'
p4166
(dp4167
S'20140328_11'
p4168
S'324f3626-d4c7-4622-bf82-3314cb546cfc'
p4169
sS'20140311_14'
p4170
S'0efd2316-feb9-461c-b102-045aef8e22fe'
p4171
sS'20140311_13'
p4172
S'0efd2316-feb9-461c-b102-045aef8e22fe'
p4173
sS'20140311_12'
p4174
g4173
sS'20140311_11'
p4175
S'0efd2316-feb9-461c-b102-045aef8e22fe'
p4176
sS'20140311_10'
p4177
S'0efd2316-feb9-461c-b102-045aef8e22fe'
p4178
sS'20140408_13'
p4179
S'db22b367-f7ba-4070-b582-dd8bbacce9fb'
p4180
sS'20140509_10'
p4181
S'db22b367-f7ba-4070-b582-dd8bbacce9fb'
p4182
sS'20140509_11'
p4183
S'db22b367-f7ba-4070-b582-dd8bbacce9fb'
p4184
sS'20140509_12'
p4185
g4184
sS'20140509_13'
p4186
g4184
sS'20140408_14'
p4187
g4180
sS'20140328_14'
p4188
S'324f3626-d4c7-4622-bf82-3314cb546cfc'
p4189
sS'20140408_10'
p4190
S'db22b367-f7ba-4070-b582-dd8bbacce9fb'
p4191
sS'20140313_07'
p4192
S'324f3626-d4c7-4622-bf82-3314cb546cfc'
p4193
sS'20140408_12'
p4194
g4180
sS'20140402_13'
p4195
S'9482e992-9491-468f-89b0-e9e293406776'
p4196
sS'20140402_12'
p4197
g4196
sS'20140328_13'
p4198
S'324f3626-d4c7-4622-bf82-3314cb546cfc'
p4199
sS'20140313_08'
p4200
S'324f3626-d4c7-4622-bf82-3314cb546cfc'
p4201
sS'20140313_09'
p4202
S'324f3626-d4c7-4622-bf82-3314cb546cfc'
p4203
sS'20140402_10'
p4204
S'9482e992-9491-468f-89b0-e9e293406776'
p4205
sS'20140328_12'
p4206
g4169
sS'20140317_11'
p4207
S'324f3626-d4c7-4622-bf82-3314cb546cfc'
p4208
sS'20140317_10'
p4209
g4208
sS'20140317_13'
p4210
S'324f3626-d4c7-4622-bf82-3314cb546cfc'
p4211
sS'20140317_12'
p4212
g4211
sS'20140317_15'
p4213
S'324f3626-d4c7-4622-bf82-3314cb546cfc'
p4214
sS'20140317_14'
p4215
g4214
sS'20140317_17'
p4216
S'324f3626-d4c7-4622-bf82-3314cb546cfc'
p4217
sS'20140317_16'
p4218
g4214
sS'20140509_08'
p4219
S'db22b367-f7ba-4070-b582-dd8bbacce9fb'
p4220
sS'20140516_09'
p4221
S'324f3626-d4c7-4622-bf82-3314cb546cfc'
p4222
sS'20140516_08'
p4223
S'324f3626-d4c7-4622-bf82-3314cb546cfc'
p4224
sS'20140408_09'
p4225
S'db22b367-f7ba-4070-b582-dd8bbacce9fb'
p4226
sS'20140411_07'
p4227
S'db22b367-f7ba-4070-b582-dd8bbacce9fb'
p4228
sS'20140411_06'
p4229
S'db22b367-f7ba-4070-b582-dd8bbacce9fb'
p4230
sS'20140411_09'
p4231
S'db22b367-f7ba-4070-b582-dd8bbacce9fb'
p4232
sS'20140411_08'
p4233
S'db22b367-f7ba-4070-b582-dd8bbacce9fb'
p4234
sS'20140408_08'
p4235
S'db22b367-f7ba-4070-b582-dd8bbacce9fb'
p4236
sS'20140516_07'
p4237
S'324f3626-d4c7-4622-bf82-3314cb546cfc'
p4238
sS'20140516_06'
p4239
g4238
sS'20140311_07'
p4240
S'0efd2316-feb9-461c-b102-045aef8e22fe'
p4241
sS'20140331_11'
p4242
S'0efd2316-feb9-461c-b102-045aef8e22fe'
p4243
sS'20140331_10'
p4244
S'0efd2316-feb9-461c-b102-045aef8e22fe'
p4245
sS'20140331_13'
p4246
S'0efd2316-feb9-461c-b102-045aef8e22fe'
p4247
sS'20140331_12'
p4248
g4243
sS'20140509_07'
p4249
S'db22b367-f7ba-4070-b582-dd8bbacce9fb'
p4250
sS'20140509_06'
p4251
S'db22b367-f7ba-4070-b582-dd8bbacce9fb'
p4252
sS'20140311_08'
p4253
g4241
sS'20140311_09'
p4254
g4178
sS'20140408_07'
p4255
S'db22b367-f7ba-4070-b582-dd8bbacce9fb'
p4256
sS'20140408_06'
p4257
S'db22b367-f7ba-4070-b582-dd8bbacce9fb'
p4258
sS'20140509_09'
p4259
g4182
sS'20140402_11'
p4260
S'9482e992-9491-468f-89b0-e9e293406776'
p4261
sS'20140313_14'
p4262
S'324f3626-d4c7-4622-bf82-3314cb546cfc'
p4263
sS'20140313_11'
p4264
g4203
sS'20140313_10'
p4265
g4203
sS'20140313_13'
p4266
S'324f3626-d4c7-4622-bf82-3314cb546cfc'
p4267
sS'20140313_12'
p4268
g4267
sS'20140402_07'
p4269
S'9482e992-9491-468f-89b0-e9e293406776'
p4270
sS'20140402_06'
p4271
S'9482e992-9491-468f-89b0-e9e293406776'
p4272
sS'20140402_09'
p4273
S'9482e992-9491-468f-89b0-e9e293406776'
p4274
sS'20140402_08'
p4275
g4274
sS'20140331_08'
p4276
S'0efd2316-feb9-461c-b102-045aef8e22fe'
p4277
sS'20140331_09'
p4278
g4277
sS'20140411_12'
p4279
S'db22b367-f7ba-4070-b582-dd8bbacce9fb'
p4280
sS'20140411_13'
p4281
S'db22b367-f7ba-4070-b582-dd8bbacce9fb'
p4282
sS'20140411_10'
p4283
g4232
sS'20140411_11'
p4284
S'db22b367-f7ba-4070-b582-dd8bbacce9fb'
p4285
sS'20140516_10'
p4286
S'324f3626-d4c7-4622-bf82-3314cb546cfc'
p4287
sS'20140516_11'
p4288
S'324f3626-d4c7-4622-bf82-3314cb546cfc'
p4289
sS'20140516_12'
p4290
S'324f3626-d4c7-4622-bf82-3314cb546cfc'
p4291
sS'20140516_13'
p4292
S'324f3626-d4c7-4622-bf82-3314cb546cfc'
p4293
sS'20140331_06'
p4294
S'0efd2316-feb9-461c-b102-045aef8e22fe'
p4295
sS'20140331_07'
p4296
S'0efd2316-feb9-461c-b102-045aef8e22fe'
p4297
sS'20140408_11'
p4298
S'db22b367-f7ba-4070-b582-dd8bbacce9fb'
p4299
ssS'23b2795c-d366-4ae8-a998-115a517fb337'
p4300
(dp4301
S'20140519_06'
p4302
S'2360f815-dcaa-4ded-9a86-a3b0c9f67450'
p4303
sS'20140519_07'
p4304
g4303
sS'20140519_05'
p4305
g4303
sS'20140519_08'
p4306
g4303
sS'20140519_09'
p4307
S'2360f815-dcaa-4ded-9a86-a3b0c9f67450'
p4308
sS'20140519_11'
p4309
S'2360f815-dcaa-4ded-9a86-a3b0c9f67450'
p4310
sS'20140519_10'
p4311
g4308
sS'20140519_12'
p4312
g4310
sS'20140514_17'
p4313
S'47d0b7f6-6413-47ba-ab4f-76520ce148e2'
p4314
sS'20140520_11'
p4315
S'2360f815-dcaa-4ded-9a86-a3b0c9f67450'
p4316
sS'20140520_10'
p4317
g4316
sS'20140520_13'
p4318
S'2360f815-dcaa-4ded-9a86-a3b0c9f67450'
p4319
sS'20140520_12'
p4320
g4319
sS'20140520_15'
p4321
g4319
sS'20140520_14'
p4322
g4319
sS'20140520_17'
p4323
g4319
sS'20140520_16'
p4324
g4319
ssS'10193cae-ec8f-4ace-b2ad-be27d27a6f43'
p4325
(dp4326
S'20140304_14'
p4327
S'3da914c6-ab24-435c-aa9f-8facdfc1b5f7'
p4328
sS'20140311_14'
p4329
S'c0d88b90-e1b4-4bf4-b43d-bf4091346b2c'
p4330
sS'20140304_11'
p4331
S'3da914c6-ab24-435c-aa9f-8facdfc1b5f7'
p4332
sS'20140304_10'
p4333
S'3da914c6-ab24-435c-aa9f-8facdfc1b5f7'
p4334
sS'20140304_13'
p4335
g4328
sS'20140304_12'
p4336
g4328
sS'20140314_08'
p4337
S'fee8a191-c3ca-42fd-b027-65cf73b2bf8c'
p4338
sS'20140508_14'
p4339
S'0efd2316-feb9-461c-b102-045aef8e22fe'
p4340
sS'20140508_13'
p4341
g4340
sS'20140508_12'
p4342
S'0efd2316-feb9-461c-b102-045aef8e22fe'
p4343
sS'20140508_11'
p4344
g4343
sS'20140508_10'
p4345
S'0efd2316-feb9-461c-b102-045aef8e22fe'
p4346
sS'20140311_13'
p4347
S'c0d88b90-e1b4-4bf4-b43d-bf4091346b2c'
p4348
sS'20140311_12'
p4349
g4348
sS'20140314_10'
p4350
S'fee8a191-c3ca-42fd-b027-65cf73b2bf8c'
p4351
sS'20140314_11'
p4352
g4351
sS'20140314_12'
p4353
S'fee8a191-c3ca-42fd-b027-65cf73b2bf8c'
p4354
sS'20140314_13'
p4355
g4354
sS'20140314_14'
p4356
g4354
sS'20140311_11'
p4357
S'c0d88b90-e1b4-4bf4-b43d-bf4091346b2c'
p4358
sS'20140326_08'
p4359
S'3da914c6-ab24-435c-aa9f-8facdfc1b5f7'
p4360
sS'20140326_09'
p4361
S'3da914c6-ab24-435c-aa9f-8facdfc1b5f7'
p4362
sS'20140326_07'
p4363
S'3da914c6-ab24-435c-aa9f-8facdfc1b5f7'
p4364
sS'20140311_10'
p4365
g4358
sS'20140304_08'
p4366
S'3da914c6-ab24-435c-aa9f-8facdfc1b5f7'
p4367
sS'20140304_09'
p4368
g4334
sS'20140304_07'
p4369
S'3da914c6-ab24-435c-aa9f-8facdfc1b5f7'
p4370
sS'20140311_07'
p4371
S'c0d88b90-e1b4-4bf4-b43d-bf4091346b2c'
p4372
sS'20140311_08'
p4373
g4372
sS'20140311_09'
p4374
g4358
sS'20140508_06'
p4375
S'0efd2316-feb9-461c-b102-045aef8e22fe'
p4376
sS'20140508_07'
p4377
g4376
sS'20140508_08'
p4378
S'0efd2316-feb9-461c-b102-045aef8e22fe'
p4379
sS'20140508_09'
p4380
S'0efd2316-feb9-461c-b102-045aef8e22fe'
p4381
sS'20140314_07'
p4382
g4338
sS'20140326_11'
p4383
S'3da914c6-ab24-435c-aa9f-8facdfc1b5f7'
p4384
sS'20140326_10'
p4385
g4362
sS'20140326_13'
p4386
S'3da914c6-ab24-435c-aa9f-8facdfc1b5f7'
p4387
sS'20140326_12'
p4388
g4387
sS'20140326_14'
p4389
S'3da914c6-ab24-435c-aa9f-8facdfc1b5f7'
p4390
sS'20140314_09'
p4391
g4351
ssS'ddccc441-0597-494d-93a1-8e0ca76efe37'
p4392
(dp4393
S'20140512_07'
p4394
S'b851ca6c-8885-44a4-96b4-5c93d2975c9a'
p4395
sS'20140512_06'
p4396
g4395
sS'20140401_13'
p4397
S'fee8a191-c3ca-42fd-b027-65cf73b2bf8c'
p4398
sS'20140401_12'
p4399
g4398
sS'20140401_11'
p4400
g4398
sS'20140401_10'
p4401
S'fee8a191-c3ca-42fd-b027-65cf73b2bf8c'
p4402
sS'20140512_09'
p4403
S'b851ca6c-8885-44a4-96b4-5c93d2975c9a'
p4404
sS'20140512_08'
p4405
g4404
sS'20140429_06'
p4406
S'fee8a191-c3ca-42fd-b027-65cf73b2bf8c'
p4407
sS'20140429_07'
p4408
g4407
sS'20140429_08'
p4409
S'fee8a191-c3ca-42fd-b027-65cf73b2bf8c'
p4410
sS'20140429_09'
p4411
S'fee8a191-c3ca-42fd-b027-65cf73b2bf8c'
p4412
sS'20140430_08'
p4413
S'fee8a191-c3ca-42fd-b027-65cf73b2bf8c'
p4414
sS'20140430_09'
p4415
S'fee8a191-c3ca-42fd-b027-65cf73b2bf8c'
p4416
sS'20140506_11'
p4417
S'fee8a191-c3ca-42fd-b027-65cf73b2bf8c'
p4418
sS'20140506_10'
p4419
S'fee8a191-c3ca-42fd-b027-65cf73b2bf8c'
p4420
sS'20140430_06'
p4421
S'fee8a191-c3ca-42fd-b027-65cf73b2bf8c'
p4422
sS'20140430_07'
p4423
g4414
sS'20140506_13'
p4424
g4418
sS'20140401_06'
p4425
S'fee8a191-c3ca-42fd-b027-65cf73b2bf8c'
p4426
sS'20140401_07'
p4427
g4426
sS'20140512_10'
p4428
S'b851ca6c-8885-44a4-96b4-5c93d2975c9a'
p4429
sS'20140512_11'
p4430
S'b851ca6c-8885-44a4-96b4-5c93d2975c9a'
p4431
sS'20140512_12'
p4432
S'b851ca6c-8885-44a4-96b4-5c93d2975c9a'
p4433
sS'20140512_13'
p4434
S'b851ca6c-8885-44a4-96b4-5c93d2975c9a'
p4435
sS'20140401_08'
p4436
S'fee8a191-c3ca-42fd-b027-65cf73b2bf8c'
p4437
sS'20140401_09'
p4438
g4437
sS'20140506_12'
p4439
g4418
sS'20140429_11'
p4440
S'fee8a191-c3ca-42fd-b027-65cf73b2bf8c'
p4441
sS'20140429_10'
p4442
g4412
sS'20140429_13'
p4443
g4441
sS'20140429_12'
p4444
g4441
sS'20140506_08'
p4445
S'fee8a191-c3ca-42fd-b027-65cf73b2bf8c'
p4446
sS'20140506_09'
p4447
g4446
sS'20140506_06'
p4448
S'fee8a191-c3ca-42fd-b027-65cf73b2bf8c'
p4449
sS'20140506_07'
p4450
g4449
sS'20140430_13'
p4451
S'fee8a191-c3ca-42fd-b027-65cf73b2bf8c'
p4452
sS'20140430_12'
p4453
g4452
sS'20140430_11'
p4454
S'fee8a191-c3ca-42fd-b027-65cf73b2bf8c'
p4455
sS'20140430_10'
p4456
g4416
ssS'1837eff9-a95c-4ea9-b005-0faefd1e071d'
p4457
(dp4458
S'20140310_12'
p4459
S'47d0b7f6-6413-47ba-ab4f-76520ce148e2'
p4460
sS'20140310_13'
p4461
S'47d0b7f6-6413-47ba-ab4f-76520ce148e2'
p4462
sS'20140310_10'
p4463
S'47d0b7f6-6413-47ba-ab4f-76520ce148e2'
p4464
sS'20140310_11'
p4465
S'47d0b7f6-6413-47ba-ab4f-76520ce148e2'
p4466
sS'20140310_14'
p4467
S'47d0b7f6-6413-47ba-ab4f-76520ce148e2'
p4468
sS'20140313_07'
p4469
S'0efd2316-feb9-461c-b102-045aef8e22fe'
p4470
sS'20140310_09'
p4471
g4464
sS'20140310_08'
p4472
S'47d0b7f6-6413-47ba-ab4f-76520ce148e2'
p4473
sS'20140310_07'
p4474
S'47d0b7f6-6413-47ba-ab4f-76520ce148e2'
p4475
sS'20140313_14'
p4476
S'0efd2316-feb9-461c-b102-045aef8e22fe'
p4477
sS'20140313_08'
p4478
g4470
sS'20140313_09'
p4479
S'0efd2316-feb9-461c-b102-045aef8e22fe'
p4480
sS'20140313_11'
p4481
g4480
sS'20140313_10'
p4482
g4480
sS'20140313_13'
p4483
S'0efd2316-feb9-461c-b102-045aef8e22fe'
p4484
sS'20140313_12'
p4485
g4484
ssS'fd80059a-e7c7-4b38-b2de-01d017edfb78'
p4486
(dp4487
S'20140321_14'
p4488
S'b851ca6c-8885-44a4-96b4-5c93d2975c9a'
p4489
sS'20140321_15'
p4490
S'b851ca6c-8885-44a4-96b4-5c93d2975c9a'
p4491
sS'20140321_16'
p4492
g4491
sS'20140321_17'
p4493
S'b851ca6c-8885-44a4-96b4-5c93d2975c9a'
p4494
sS'20140321_10'
p4495
S'b851ca6c-8885-44a4-96b4-5c93d2975c9a'
p4496
sS'20140321_11'
p4497
g4496
sS'20140321_12'
p4498
g4496
sS'20140321_13'
p4499
g4489
sS'20140325_14'
p4500
S'b851ca6c-8885-44a4-96b4-5c93d2975c9a'
p4501
sS'20140325_15'
p4502
g4501
sS'20140305_09'
p4503
S'c0d88b90-e1b4-4bf4-b43d-bf4091346b2c'
p4504
sS'20140305_08'
p4505
S'c0d88b90-e1b4-4bf4-b43d-bf4091346b2c'
p4506
sS'20140305_07'
p4507
g4506
sS'20140325_10'
p4508
S'b851ca6c-8885-44a4-96b4-5c93d2975c9a'
p4509
sS'20140325_11'
p4510
g4501
sS'20140325_12'
p4511
g4501
sS'20140306_14'
p4512
S'b851ca6c-8885-44a4-96b4-5c93d2975c9a'
p4513
sS'20140306_13'
p4514
S'b851ca6c-8885-44a4-96b4-5c93d2975c9a'
p4515
sS'20140306_12'
p4516
S'b851ca6c-8885-44a4-96b4-5c93d2975c9a'
p4517
sS'20140306_11'
p4518
g4517
sS'20140306_10'
p4519
S'b851ca6c-8885-44a4-96b4-5c93d2975c9a'
p4520
sS'20140321_07'
p4521
S'b851ca6c-8885-44a4-96b4-5c93d2975c9a'
p4522
sS'20140321_06'
p4523
g4522
sS'20140321_05'
p4524
g4522
sS'20140321_09'
p4525
S'b851ca6c-8885-44a4-96b4-5c93d2975c9a'
p4526
sS'20140321_08'
p4527
g4522
sS'20140305_12'
p4528
S'c0d88b90-e1b4-4bf4-b43d-bf4091346b2c'
p4529
sS'20140305_13'
p4530
S'c0d88b90-e1b4-4bf4-b43d-bf4091346b2c'
p4531
sS'20140305_10'
p4532
g4529
sS'20140305_11'
p4533
g4529
sS'20140305_14'
p4534
g4531
sS'20140325_09'
p4535
g4509
sS'20140325_08'
p4536
S'b851ca6c-8885-44a4-96b4-5c93d2975c9a'
p4537
sS'20140306_08'
p4538
S'b851ca6c-8885-44a4-96b4-5c93d2975c9a'
p4539
sS'20140306_09'
p4540
S'b851ca6c-8885-44a4-96b4-5c93d2975c9a'
p4541
sS'20140306_07'
p4542
g4539
sS'20140325_07'
p4543
g4537
sS'20140325_13'
p4544
g4501
ssS'__EMPTY__'
p4545
(dp4546
S'20140503_06'
p4547
S'c0d88b90-e1b4-4bf4-b43d-bf4091346b2c'
p4548
sS'20140530_09'
p4549
S'9482e992-9491-468f-89b0-e9e293406776'
p4550
sS'20140530_08'
p4551
g4550
sS'20140530_07'
p4552
S'9482e992-9491-468f-89b0-e9e293406776'
p4553
sS'20140530_06'
p4554
S'9482e992-9491-468f-89b0-e9e293406776'
p4555
sS'20140330_12'
p4556
S'47d0b7f6-6413-47ba-ab4f-76520ce148e2'
p4557
sS'20140330_13'
p4558
S'47d0b7f6-6413-47ba-ab4f-76520ce148e2'
p4559
sS'20140330_10'
p4560
S'47d0b7f6-6413-47ba-ab4f-76520ce148e2'
p4561
sS'20140330_11'
p4562
g4557
sS'20140502_11'
p4563
S'c0d88b90-e1b4-4bf4-b43d-bf4091346b2c'
p4564
sS'20140502_10'
p4565
S'c0d88b90-e1b4-4bf4-b43d-bf4091346b2c'
p4566
sS'20140330_14'
p4567
g4559
sS'20140502_12'
p4568
S'c0d88b90-e1b4-4bf4-b43d-bf4091346b2c'
p4569
sS'20140502_07'
p4570
S'c0d88b90-e1b4-4bf4-b43d-bf4091346b2c'
p4571
sS'20140525_09'
p4572
S'9482e992-9491-468f-89b0-e9e293406776'
p4573
sS'20140525_08'
p4574
S'9482e992-9491-468f-89b0-e9e293406776'
p4575
sS'20140511_19'
p4576
S'9482e992-9491-468f-89b0-e9e293406776'
p4577
sS'20140525_07'
p4578
S'9482e992-9491-468f-89b0-e9e293406776'
p4579
sS'20140525_06'
p4580
g4579
sS'20140511_18'
p4581
g4577
sS'20140418_11'
p4582
S'c0d88b90-e1b4-4bf4-b43d-bf4091346b2c'
p4583
sS'20140418_10'
p4584
g4583
sS'20140413_09'
p4585
S'c0d88b90-e1b4-4bf4-b43d-bf4091346b2c'
p4586
sS'20140413_08'
p4587
S'c0d88b90-e1b4-4bf4-b43d-bf4091346b2c'
p4588
sS'20140513_08'
p4589
S'fee8a191-c3ca-42fd-b027-65cf73b2bf8c'
p4590
sS'20140513_09'
p4591
S'fee8a191-c3ca-42fd-b027-65cf73b2bf8c'
p4592
sS'20140424_10'
p4593
S'b851ca6c-8885-44a4-96b4-5c93d2975c9a'
p4594
sS'20140424_11'
p4595
g4594
sS'20140426_10'
p4596
S'c0d88b90-e1b4-4bf4-b43d-bf4091346b2c'
p4597
sS'20140426_11'
p4598
g4597
sS'20140513_06'
p4599
S'fee8a191-c3ca-42fd-b027-65cf73b2bf8c'
p4600
sS'20140513_07'
p4601
g4600
sS'20140413_07'
p4602
g4588
sS'20140501_08'
p4603
S'c0d88b90-e1b4-4bf4-b43d-bf4091346b2c'
p4604
sS'20140504_13'
p4605
S'c0d88b90-e1b4-4bf4-b43d-bf4091346b2c'
p4606
sS'20140502_08'
p4607
S'c0d88b90-e1b4-4bf4-b43d-bf4091346b2c'
p4608
sS'20140502_09'
p4609
g4608
sS'20140504_12'
p4610
g4606
sS'20140516_08'
p4611
S'c0d88b90-e1b4-4bf4-b43d-bf4091346b2c'
p4612
sS'20140530_10'
p4613
S'9482e992-9491-468f-89b0-e9e293406776'
p4614
sS'20140530_11'
p4615
g4614
sS'20140530_12'
p4616
S'9482e992-9491-468f-89b0-e9e293406776'
p4617
sS'20140530_13'
p4618
g4617
sS'20140504_10'
p4619
S'c0d88b90-e1b4-4bf4-b43d-bf4091346b2c'
p4620
sS'20140419_10'
p4621
S'c0d88b90-e1b4-4bf4-b43d-bf4091346b2c'
p4622
sS'20140525_12'
p4623
S'9482e992-9491-468f-89b0-e9e293406776'
p4624
sS'20140525_13'
p4625
S'9482e992-9491-468f-89b0-e9e293406776'
p4626
sS'20140525_10'
p4627
g4573
sS'20140525_11'
p4628
S'9482e992-9491-468f-89b0-e9e293406776'
p4629
sS'20140525_14'
p4630
S'324f3626-d4c7-4622-bf82-3314cb546cfc'
p4631
sS'20140418_06'
p4632
S'c0d88b90-e1b4-4bf4-b43d-bf4091346b2c'
p4633
sS'20140418_07'
p4634
g4633
sS'20140418_05'
p4635
g4633
sS'20140419_11'
p4636
g4622
sS'20140405_13'
p4637
S'2360f815-dcaa-4ded-9a86-a3b0c9f67450'
p4638
sS'20140405_12'
p4639
S'2360f815-dcaa-4ded-9a86-a3b0c9f67450'
p4640
sS'20140405_11'
p4641
g4640
sS'20140405_10'
p4642
g4640
sS'20140418_08'
p4643
g4633
sS'20140405_14'
p4644
g4638
sS'20140406_09'
p4645
S'2360f815-dcaa-4ded-9a86-a3b0c9f67450'
p4646
sS'20140406_08'
p4647
S'2360f815-dcaa-4ded-9a86-a3b0c9f67450'
p4648
sS'20140425_14'
p4649
S'db22b367-f7ba-4070-b582-dd8bbacce9fb'
p4650
sS'20140502_13'
p4651
S'c0d88b90-e1b4-4bf4-b43d-bf4091346b2c'
p4652
sS'20140511_10'
p4653
S'c0d88b90-e1b4-4bf4-b43d-bf4091346b2c'
p4654
sS'20140318_16'
p4655
S'0efd2316-feb9-461c-b102-045aef8e22fe'
p4656
sS'20140406_07'
p4657
g4648
sS'20140424_12'
p4658
S'b851ca6c-8885-44a4-96b4-5c93d2975c9a'
p4659
sS'20140318_17'
p4660
S'0efd2316-feb9-461c-b102-045aef8e22fe'
p4661
sS'20140501_06'
p4662
S'c0d88b90-e1b4-4bf4-b43d-bf4091346b2c'
p4663
sS'20140412_13'
p4664
S'2360f815-dcaa-4ded-9a86-a3b0c9f67450'
p4665
sS'20140412_12'
p4666
g4665
sS'20140412_11'
p4667
S'2360f815-dcaa-4ded-9a86-a3b0c9f67450'
p4668
sS'20140412_10'
p4669
g4668
sS'20140503_09'
p4670
S'c0d88b90-e1b4-4bf4-b43d-bf4091346b2c'
p4671
sS'20140503_08'
p4672
g4671
sS'20140504_06'
p4673
S'c0d88b90-e1b4-4bf4-b43d-bf4091346b2c'
p4674
sS'20140412_14'
p4675
g4665
sS'20140504_08'
p4676
g4674
sS'20140504_09'
p4677
g4620
sS'20140503_07'
p4678
g4671
sS'20140427_10'
p4679
S'c0d88b90-e1b4-4bf4-b43d-bf4091346b2c'
p4680
sS'20140405_08'
p4681
S'2360f815-dcaa-4ded-9a86-a3b0c9f67450'
p4682
sS'20140405_09'
p4683
g4640
sS'20140427_07'
p4684
S'c0d88b90-e1b4-4bf4-b43d-bf4091346b2c'
p4685
sS'20140513_20'
p4686
S'9482e992-9491-468f-89b0-e9e293406776'
p4687
sS'20140405_07'
p4688
S'2360f815-dcaa-4ded-9a86-a3b0c9f67450'
p4689
sS'20140529_12'
p4690
S'9482e992-9491-468f-89b0-e9e293406776'
p4691
sS'20140406_14'
p4692
S'2360f815-dcaa-4ded-9a86-a3b0c9f67450'
p4693
sS'20140425_09'
p4694
S'db22b367-f7ba-4070-b582-dd8bbacce9fb'
p4695
sS'20140406_12'
p4696
S'2360f815-dcaa-4ded-9a86-a3b0c9f67450'
p4697
sS'20140406_13'
p4698
g4693
sS'20140406_10'
p4699
S'2360f815-dcaa-4ded-9a86-a3b0c9f67450'
p4700
sS'20140406_11'
p4701
g4700
sS'20140501_07'
p4702
g4663
sS'20140413_10'
p4703
g4586
sS'20140413_11'
p4704
S'c0d88b90-e1b4-4bf4-b43d-bf4091346b2c'
p4705
sS'20140413_12'
p4706
S'c0d88b90-e1b4-4bf4-b43d-bf4091346b2c'
p4707
sS'20140501_09'
p4708
S'c0d88b90-e1b4-4bf4-b43d-bf4091346b2c'
p4709
sS'20140403_07'
p4710
S'47d0b7f6-6413-47ba-ab4f-76520ce148e2'
p4711
sS'20140503_12'
p4712
S'c0d88b90-e1b4-4bf4-b43d-bf4091346b2c'
p4713
sS'20140503_13'
p4714
S'c0d88b90-e1b4-4bf4-b43d-bf4091346b2c'
p4715
sS'20140503_10'
p4716
S'c0d88b90-e1b4-4bf4-b43d-bf4091346b2c'
p4717
sS'20140503_11'
p4718
g4717
sS'20140510_09'
p4719
S'c0d88b90-e1b4-4bf4-b43d-bf4091346b2c'
p4720
sS'20140510_08'
p4721
g4720
sS'20140412_07'
p4722
S'2360f815-dcaa-4ded-9a86-a3b0c9f67450'
p4723
sS'20140412_08'
p4724
g4723
sS'20140412_09'
p4725
g4668
sS'20140510_07'
p4726
S'c0d88b90-e1b4-4bf4-b43d-bf4091346b2c'
p4727
sS'20140510_06'
p4728
S'c0d88b90-e1b4-4bf4-b43d-bf4091346b2c'
p4729
sS'20140504_11'
p4730
g4606
sS'20140507_07'
p4731
S'c0d88b90-e1b4-4bf4-b43d-bf4091346b2c'
p4732
sS'20140507_06'
p4733
g4732
sS'20140507_09'
p4734
S'c0d88b90-e1b4-4bf4-b43d-bf4091346b2c'
p4735
sS'20140507_08'
p4736
g4735
sS'20140418_09'
p4737
g4633
sS'20140403_08'
p4738
S'47d0b7f6-6413-47ba-ab4f-76520ce148e2'
p4739
sS'20140426_12'
p4740
S'c0d88b90-e1b4-4bf4-b43d-bf4091346b2c'
p4741
sS'20140403_09'
p4742
g4739
sS'20140425_12'
p4743
g4650
sS'20140511_20'
p4744
g4577
sS'20140501_10'
p4745
S'c0d88b90-e1b4-4bf4-b43d-bf4091346b2c'
p4746
sS'20140501_11'
p4747
g4746
sS'20140501_12'
p4748
S'c0d88b90-e1b4-4bf4-b43d-bf4091346b2c'
p4749
sS'20140501_13'
p4750
g4749
sS'20140510_12'
p4751
S'c0d88b90-e1b4-4bf4-b43d-bf4091346b2c'
p4752
sS'20140510_13'
p4753
g4752
sS'20140510_10'
p4754
g4752
sS'20140510_11'
p4755
g4752
sS'20140427_11'
p4756
g4680
sS'20140418_12'
p4757
S'c0d88b90-e1b4-4bf4-b43d-bf4091346b2c'
p4758
sS'20140404_07'
p4759
S'47d0b7f6-6413-47ba-ab4f-76520ce148e2'
p4760
sS'20140507_13'
p4761
S'c0d88b90-e1b4-4bf4-b43d-bf4091346b2c'
p4762
sS'20140507_10'
p4763
S'c0d88b90-e1b4-4bf4-b43d-bf4091346b2c'
p4764
sS'20140507_11'
p4765
S'c0d88b90-e1b4-4bf4-b43d-bf4091346b2c'
p4766
sS'20140425_11'
p4767
S'db22b367-f7ba-4070-b582-dd8bbacce9fb'
p4768
sS'20140424_07'
p4769
S'b851ca6c-8885-44a4-96b4-5c93d2975c9a'
p4770
sS'20140404_09'
p4771
S'47d0b7f6-6413-47ba-ab4f-76520ce148e2'
p4772
sS'20140404_08'
p4773
g4760
sS'20140516_07'
p4774
g4612
sS'20140507_12'
p4775
S'c0d88b90-e1b4-4bf4-b43d-bf4091346b2c'
p4776
sS'20140424_13'
p4777
g4659
sS'20140419_09'
p4778
g4622
sS'20140419_08'
p4779
S'c0d88b90-e1b4-4bf4-b43d-bf4091346b2c'
p4780
sS'20140419_12'
p4781
S'c0d88b90-e1b4-4bf4-b43d-bf4091346b2c'
p4782
sS'20140419_05'
p4783
g4780
sS'20140419_07'
p4784
g4780
sS'20140419_06'
p4785
g4780
sS'20140511_15'
p4786
S'9482e992-9491-468f-89b0-e9e293406776'
p4787
sS'20140511_17'
p4788
g4577
sS'20140511_16'
p4789
g4577
sS'20140511_11'
p4790
S'c0d88b90-e1b4-4bf4-b43d-bf4091346b2c'
p4791
sS'20140529_07'
p4792
S'9482e992-9491-468f-89b0-e9e293406776'
p4793
sS'20140511_13'
p4794
S'c0d88b90-e1b4-4bf4-b43d-bf4091346b2c'
p4795
sS'20140511_12'
p4796
S'c0d88b90-e1b4-4bf4-b43d-bf4091346b2c'
p4797
sS'20140518_12'
p4798
S'2360f815-dcaa-4ded-9a86-a3b0c9f67450'
p4799
sS'20140518_13'
p4800
g4799
sS'20140518_10'
p4801
S'2360f815-dcaa-4ded-9a86-a3b0c9f67450'
p4802
sS'20140518_11'
p4803
g4802
sS'20140518_16'
p4804
g4799
sS'20140518_17'
p4805
S'2360f815-dcaa-4ded-9a86-a3b0c9f67450'
p4806
sS'20140518_14'
p4807
g4799
sS'20140518_15'
p4808
g4799
sS'20140427_13'
p4809
S'c0d88b90-e1b4-4bf4-b43d-bf4091346b2c'
p4810
sS'20140427_12'
p4811
g4810
sS'20140402_07'
p4812
S'47d0b7f6-6413-47ba-ab4f-76520ce148e2'
p4813
sS'20140426_13'
p4814
g4741
sS'20140420_14'
p4815
S'c0d88b90-e1b4-4bf4-b43d-bf4091346b2c'
p4816
sS'20140427_14'
p4817
g4810
sS'20140426_14'
p4818
S'c0d88b90-e1b4-4bf4-b43d-bf4091346b2c'
p4819
sS'20140420_15'
p4820
g4816
sS'20140402_09'
p4821
S'47d0b7f6-6413-47ba-ab4f-76520ce148e2'
p4822
sS'20140402_08'
p4823
S'47d0b7f6-6413-47ba-ab4f-76520ce148e2'
p4824
sS'20140516_06'
p4825
g4612
sS'20140404_10'
p4826
g4772
sS'20140404_13'
p4827
S'47d0b7f6-6413-47ba-ab4f-76520ce148e2'
p4828
sS'20140404_14'
p4829
g4828
sS'20140404_15'
p4830
g4828
sS'20140425_08'
p4831
g4695
sS'20140403_14'
p4832
S'47d0b7f6-6413-47ba-ab4f-76520ce148e2'
p4833
sS'20140515_11'
p4834
S'b851ca6c-8885-44a4-96b4-5c93d2975c9a'
p4835
sS'20140515_10'
p4836
g4835
sS'20140515_13'
p4837
S'b851ca6c-8885-44a4-96b4-5c93d2975c9a'
p4838
sS'20140515_12'
p4839
g4835
sS'20140516_14'
p4840
S'47d0b7f6-6413-47ba-ab4f-76520ce148e2'
p4841
sS'20140515_14'
p4842
S'324f3626-d4c7-4622-bf82-3314cb546cfc'
p4843
sS'20140529_09'
p4844
g4793
sS'20140529_08'
p4845
g4793
sS'20140511_08'
p4846
S'c0d88b90-e1b4-4bf4-b43d-bf4091346b2c'
p4847
sS'20140511_09'
p4848
S'c0d88b90-e1b4-4bf4-b43d-bf4091346b2c'
p4849
sS'20140511_06'
p4850
S'c0d88b90-e1b4-4bf4-b43d-bf4091346b2c'
p4851
sS'20140511_07'
p4852
S'c0d88b90-e1b4-4bf4-b43d-bf4091346b2c'
p4853
sS'20140318_09'
p4854
S'0efd2316-feb9-461c-b102-045aef8e22fe'
p4855
sS'20140529_06'
p4856
g4793
sS'20140524_11'
p4857
S'324f3626-d4c7-4622-bf82-3314cb546cfc'
p4858
sS'20140524_10'
p4859
S'9482e992-9491-468f-89b0-e9e293406776'
p4860
sS'20140524_13'
p4861
S'9482e992-9491-468f-89b0-e9e293406776'
p4862
sS'20140524_12'
p4863
g4862
sS'20140402_12'
p4864
S'47d0b7f6-6413-47ba-ab4f-76520ce148e2'
p4865
sS'20140402_13'
p4866
S'47d0b7f6-6413-47ba-ab4f-76520ce148e2'
p4867
sS'20140402_10'
p4868
g4822
sS'20140402_11'
p4869
g4865
sS'20140402_14'
p4870
S'47d0b7f6-6413-47ba-ab4f-76520ce148e2'
p4871
sS'20140517_13'
p4872
S'324f3626-d4c7-4622-bf82-3314cb546cfc'
p4873
sS'20140517_12'
p4874
S'9482e992-9491-468f-89b0-e9e293406776'
p4875
sS'20140517_11'
p4876
g4875
sS'20140517_10'
p4877
g4875
sS'20140517_17'
p4878
S'2360f815-dcaa-4ded-9a86-a3b0c9f67450'
p4879
sS'20140517_16'
p4880
S'2360f815-dcaa-4ded-9a86-a3b0c9f67450'
p4881
sS'20140517_15'
p4882
g4881
sS'20140517_14'
p4883
g4873
sS'20140427_08'
p4884
g4685
sS'20140427_09'
p4885
g4680
sS'20140426_07'
p4886
S'c0d88b90-e1b4-4bf4-b43d-bf4091346b2c'
p4887
sS'20140515_08'
p4888
S'b851ca6c-8885-44a4-96b4-5c93d2975c9a'
p4889
sS'20140515_09'
p4890
g4835
sS'20140515_06'
p4891
S'b851ca6c-8885-44a4-96b4-5c93d2975c9a'
p4892
sS'20140515_07'
p4893
g4892
sS'20140515_05'
p4894
S'47d0b7f6-6413-47ba-ab4f-76520ce148e2'
p4895
sS'20140425_10'
p4896
g4768
sS'20140318_14'
p4897
S'0efd2316-feb9-461c-b102-045aef8e22fe'
p4898
sS'20140318_15'
p4899
g4898
sS'20140524_08'
p4900
g4860
sS'20140524_09'
p4901
g4860
sS'20140318_10'
p4902
g4855
sS'20140318_11'
p4903
g4855
sS'20140318_12'
p4904
g4898
sS'20140318_13'
p4905
g4898
sS'20140502_06'
p4906
S'c0d88b90-e1b4-4bf4-b43d-bf4091346b2c'
p4907
sS'20140424_06'
p4908
g4770
sS'20140524_06'
p4909
S'9482e992-9491-468f-89b0-e9e293406776'
p4910
sS'20140524_07'
p4911
g4910
sS'20140529_10'
p4912
S'9482e992-9491-468f-89b0-e9e293406776'
p4913
sS'20140529_11'
p4914
g4691
sS'20140424_09'
p4915
g4594
sS'20140330_09'
p4916
S'47d0b7f6-6413-47ba-ab4f-76520ce148e2'
p4917
sS'20140330_08'
p4918
S'47d0b7f6-6413-47ba-ab4f-76520ce148e2'
p4919
sS'20140424_08'
p4920
S'b851ca6c-8885-44a4-96b4-5c93d2975c9a'
p4921
sS'20140330_07'
p4922
S'47d0b7f6-6413-47ba-ab4f-76520ce148e2'
p4923
sS'20140425_13'
p4924
g4650
sS'20140420_11'
p4925
S'c0d88b90-e1b4-4bf4-b43d-bf4091346b2c'
p4926
sS'20140420_12'
p4927
g4816
sS'20140420_13'
p4928
g4816
sS'20140420_10'
p4929
S'c0d88b90-e1b4-4bf4-b43d-bf4091346b2c'
p4930
sS'20140529_13'
p4931
S'9482e992-9491-468f-89b0-e9e293406776'
p4932
sS'20140420_16'
p4933
g4816
sS'20140420_17'
p4934
S'c0d88b90-e1b4-4bf4-b43d-bf4091346b2c'
p4935
sS'20140517_06'
p4936
S'9482e992-9491-468f-89b0-e9e293406776'
p4937
sS'20140517_07'
p4938
S'9482e992-9491-468f-89b0-e9e293406776'
p4939
sS'20140517_08'
p4940
S'9482e992-9491-468f-89b0-e9e293406776'
p4941
sS'20140517_09'
p4942
S'9482e992-9491-468f-89b0-e9e293406776'
p4943
sS'20140504_07'
p4944
g4674
sS'20140403_11'
p4945
S'47d0b7f6-6413-47ba-ab4f-76520ce148e2'
p4946
sS'20140403_10'
p4947
g4946
sS'20140403_13'
p4948
g4833
sS'20140403_12'
p4949
S'47d0b7f6-6413-47ba-ab4f-76520ce148e2'
p4950
sS'20140426_09'
p4951
g4597
sS'20140426_08'
p4952
g4887
sS'20140513_19'
p4953
S'9482e992-9491-468f-89b0-e9e293406776'
p4954
sS'20140513_18'
p4955
g4954
sS'20140513_17'
p4956
g4954
sS'20140513_16'
p4957
g4954
sS'20140513_15'
p4958
S'0efd2316-feb9-461c-b102-045aef8e22fe'
p4959
sS'20140513_14'
p4960
S'fee8a191-c3ca-42fd-b027-65cf73b2bf8c'
p4961
sS'20140513_13'
p4962
g4961
sS'20140513_12'
p4963
S'fee8a191-c3ca-42fd-b027-65cf73b2bf8c'
p4964
sS'20140513_11'
p4965
g4964
sS'20140513_10'
p4966
g4592
ssS'8b798adf-c204-4f69-9574-108c8feb79fb'
p4967
(dp4968
S'20140414_06'
p4969
S'324f3626-d4c7-4622-bf82-3314cb546cfc'
p4970
sS'20140414_07'
p4971
S'324f3626-d4c7-4622-bf82-3314cb546cfc'
p4972
sS'20140508_13'
p4973
S'3da914c6-ab24-435c-aa9f-8facdfc1b5f7'
p4974
sS'20140508_12'
p4975
g4974
sS'20140508_11'
p4976
S'3da914c6-ab24-435c-aa9f-8facdfc1b5f7'
p4977
sS'20140508_10'
p4978
S'3da914c6-ab24-435c-aa9f-8facdfc1b5f7'
p4979
sS'20140519_14'
p4980
S'3da914c6-ab24-435c-aa9f-8facdfc1b5f7'
p4981
sS'20140519_11'
p4982
S'3da914c6-ab24-435c-aa9f-8facdfc1b5f7'
p4983
sS'20140519_10'
p4984
S'3da914c6-ab24-435c-aa9f-8facdfc1b5f7'
p4985
sS'20140519_13'
p4986
g4981
sS'20140519_12'
p4987
S'3da914c6-ab24-435c-aa9f-8facdfc1b5f7'
p4988
sS'20140523_08'
p4989
S'2360f815-dcaa-4ded-9a86-a3b0c9f67450'
p4990
sS'20140404_07'
p4991
S'0efd2316-feb9-461c-b102-045aef8e22fe'
p4992
sS'20140404_06'
p4993
g4992
sS'20140404_09'
p4994
S'0efd2316-feb9-461c-b102-045aef8e22fe'
p4995
sS'20140404_08'
p4996
S'0efd2316-feb9-461c-b102-045aef8e22fe'
p4997
sS'20140508_06'
p4998
S'3da914c6-ab24-435c-aa9f-8facdfc1b5f7'
p4999
sS'20140508_07'
p5000
S'3da914c6-ab24-435c-aa9f-8facdfc1b5f7'
p5001
sS'20140508_08'
p5002
S'3da914c6-ab24-435c-aa9f-8facdfc1b5f7'
p5003
sS'20140508_09'
p5004
g4979
sS'20140519_06'
p5005
S'3da914c6-ab24-435c-aa9f-8facdfc1b5f7'
p5006
sS'20140519_07'
p5007
g5006
sS'20140519_08'
p5008
S'3da914c6-ab24-435c-aa9f-8facdfc1b5f7'
p5009
sS'20140519_09'
p5010
g5009
sS'20140404_10'
p5011
S'0efd2316-feb9-461c-b102-045aef8e22fe'
p5012
sS'20140404_11'
p5013
S'0efd2316-feb9-461c-b102-045aef8e22fe'
p5014
sS'20140404_12'
p5015
S'0efd2316-feb9-461c-b102-045aef8e22fe'
p5016
sS'20140404_13'
p5017
g5016
sS'20140523_07'
p5018
g4990
ss.